   1               		.file	"solution.c"
   2               	__SREG__ = 0x3f
   3               	__SP_H__ = 0x3e
   4               	__SP_L__ = 0x3d
   5               	__CCP__  = 0x34
   6               	__tmp_reg__ = 0
   7               	__zero_reg__ = 1
  15               	.Ltext0:
  16               		.section	.text.buttonCheck,"ax",@progbits
  17               	.global	buttonCheck
  19               	buttonCheck:
  20               	.LFB10:
  21               	.LSM0:
  22               	/* prologue: function */
  23               	/* frame size = 0 */
  24               	.LSM1:
  25 0000 1092 0000 		sts (RIGHT)+1,__zero_reg__
  26 0004 1092 0000 		sts RIGHT,__zero_reg__
  27 0008 1092 0000 		sts (LEFT)+1,__zero_reg__
  28 000c 1092 0000 		sts LEFT,__zero_reg__
  29               	.LSM2:
  30 0010 199B      		sbis 35-32,1
  31 0012 00C0      		rjmp .L2
  32 0014 84EF      		ldi r24,lo8(500)
  33 0016 91E0      		ldi r25,hi8(500)
  34               	.LVL0:
  35               	.LBB60:
  36               	.LBB61:
  37               	.LBB62:
  38               	.LBB63:
  39               	.LSM3:
  40 0018 20E9      		ldi r18,lo8(400)
  41 001a 31E0      		ldi r19,hi8(400)
  42               	.L3:
  43 001c F901      		movw r30,r18
  44               	.LVL1:
  45               	/* #APP */
  46               	 ;  105 "c:/winavr-20100110/lib/gcc/../../avr/include/util/delay_basic.h" 1
  47 001e 3197      		1: sbiw r30,1
  48 0020 01F4      		brne 1b
  49               	 ;  0 "" 2
  50               	/* #NOAPP */
  51               	.LBE63:
  52               	.LBE62:
  53               	.LSM4:
  54 0022 0197      		sbiw r24,1
  55               	.LSM5:
  56 0024 01F4      		brne .L3
  57               	.LBE61:
  58               	.LBE60:
  59               	.LSM6:
  60 0026 199B      		sbis 35-32,1
  61 0028 00C0      		rjmp .L2
  62               	.LSM7:
  63 002a 81E0      		ldi r24,lo8(1)
  64 002c 90E0      		ldi r25,hi8(1)
  65               	.LVL2:
  66 002e 9093 0000 		sts (RIGHT)+1,r25
  67 0032 8093 0000 		sts RIGHT,r24
  68               	.LVL3:
  69               	.L2:
  70               	.LSM8:
  71 0036 189B      		sbis 35-32,0
  72 0038 00C0      		rjmp .L6
  73 003a 84EF      		ldi r24,lo8(500)
  74 003c 91E0      		ldi r25,hi8(500)
  75               	.LVL4:
  76               	.LBB64:
  77               	.LBB65:
  78               	.LBB66:
  79               	.LBB67:
  80               	.LSM9:
  81 003e 20E9      		ldi r18,lo8(400)
  82 0040 31E0      		ldi r19,hi8(400)
  83               	.L5:
  84 0042 F901      		movw r30,r18
  85               	.LVL5:
  86               	/* #APP */
  87               	 ;  105 "c:/winavr-20100110/lib/gcc/../../avr/include/util/delay_basic.h" 1
  88 0044 3197      		1: sbiw r30,1
  89 0046 01F4      		brne 1b
  90               	 ;  0 "" 2
  91               	/* #NOAPP */
  92               	.LBE67:
  93               	.LBE66:
  94               	.LSM10:
  95 0048 0197      		sbiw r24,1
  96               	.LSM11:
  97 004a 01F4      		brne .L5
  98               	.LBE65:
  99               	.LBE64:
 100               	.LSM12:
 101 004c 189B      		sbis 35-32,0
 102 004e 00C0      		rjmp .L6
 103               	.LSM13:
 104 0050 81E0      		ldi r24,lo8(1)
 105 0052 90E0      		ldi r25,hi8(1)
 106               	.LVL6:
 107 0054 9093 0000 		sts (LEFT)+1,r25
 108 0058 8093 0000 		sts LEFT,r24
 109               	.LVL7:
 110               	.L6:
 111 005c 0895      		ret
 112               	.LFE10:
 114               		.section	.text.PinChangeInit,"ax",@progbits
 115               	.global	PinChangeInit
 117               	PinChangeInit:
 118               	.LFB13:
 119               	.LSM14:
 120               	/* prologue: function */
 121               	/* frame size = 0 */
 122               	.LSM15:
 123 0000 EBE6      		ldi r30,lo8(107)
 124 0002 F0E0      		ldi r31,hi8(107)
 125 0004 8081      		ld r24,Z
 126 0006 8160      		ori r24,lo8(1)
 127 0008 8083      		st Z,r24
 128               	.LSM16:
 129 000a 8081      		ld r24,Z
 130 000c 8260      		ori r24,lo8(2)
 131 000e 8083      		st Z,r24
 132               	.LSM17:
 133 0010 E8E6      		ldi r30,lo8(104)
 134 0012 F0E0      		ldi r31,hi8(104)
 135 0014 8081      		ld r24,Z
 136 0016 8160      		ori r24,lo8(1)
 137 0018 8083      		st Z,r24
 138               	.LSM18:
 139 001a E9E6      		ldi r30,lo8(105)
 140 001c F0E0      		ldi r31,hi8(105)
 141 001e 8081      		ld r24,Z
 142 0020 8160      		ori r24,lo8(1)
 143 0022 8083      		st Z,r24
 144               	.LSM19:
 145               	/* #APP */
 146               	 ;  307 "solution.c" 1
 147 0024 7894      		sei
 148               	 ;  0 "" 2
 149               	/* epilogue start */
 150               	.LSM20:
 151               	/* #NOAPP */
 152 0026 0895      		ret
 153               	.LFE13:
 155               		.section	.text.__vector_9,"ax",@progbits
 156               	.global	__vector_9
 158               	__vector_9:
 159               	.LFB14:
 160               	.LSM21:
 161 0000 1F92      		push __zero_reg__
 162 0002 0F92      		push r0
 163 0004 0FB6      		in r0,__SREG__
 164 0006 0F92      		push r0
 165 0008 1124      		clr __zero_reg__
 166 000a 8F93      		push r24
 167 000c 9F93      		push r25
 168               	/* prologue: Signal */
 169               	/* frame size = 0 */
 170               	.LSM22:
 171 000e 1092 0000 		sts (RIGHT)+1,__zero_reg__
 172 0012 1092 0000 		sts RIGHT,__zero_reg__
 173 0016 1092 0000 		sts (LEFT)+1,__zero_reg__
 174 001a 1092 0000 		sts LEFT,__zero_reg__
 175               	.LSM23:
 176 001e 199B      		sbis 35-32,1
 177 0020 00C0      		rjmp .L12
 178               	.LSM24:
 179 0022 81E0      		ldi r24,lo8(1)
 180 0024 90E0      		ldi r25,hi8(1)
 181 0026 9093 0000 		sts (RIGHT)+1,r25
 182 002a 8093 0000 		sts RIGHT,r24
 183               	.L12:
 184               	.LSM25:
 185 002e 189B      		sbis 35-32,0
 186 0030 00C0      		rjmp .L14
 187               	.LSM26:
 188 0032 81E0      		ldi r24,lo8(1)
 189 0034 90E0      		ldi r25,hi8(1)
 190 0036 9093 0000 		sts (LEFT)+1,r25
 191 003a 8093 0000 		sts LEFT,r24
 192               	.L14:
 193               	/* epilogue start */
 194               	.LSM27:
 195 003e 9F91      		pop r25
 196 0040 8F91      		pop r24
 197 0042 0F90      		pop r0
 198 0044 0FBE      		out __SREG__,r0
 199 0046 0F90      		pop r0
 200 0048 1F90      		pop __zero_reg__
 201 004a 1895      		reti
 202               	.LFE14:
 204               		.section	.text.TimerInit,"ax",@progbits
 205               	.global	TimerInit
 207               	TimerInit:
 208               	.LFB15:
 209               	.LSM28:
 210               	/* prologue: function */
 211               	/* frame size = 0 */
 212               	.LSM29:
 213 0000 84B5      		in r24,68-32
 214 0002 8D7F      		andi r24,lo8(-3)
 215 0004 84BD      		out 68-32,r24
 216               	.LSM30:
 217 0006 85B5      		in r24,69-32
 218 0008 877F      		andi r24,lo8(-9)
 219 000a 85BD      		out 69-32,r24
 220               	.LSM31:
 221 000c 85B5      		in r24,69-32
 222 000e 8560      		ori r24,lo8(5)
 223 0010 85BD      		out 69-32,r24
 224               	.LSM32:
 225 0012 85B5      		in r24,69-32
 226 0014 8D7F      		andi r24,lo8(-3)
 227 0016 85BD      		out 69-32,r24
 228               	.LSM33:
 229 0018 EEE6      		ldi r30,lo8(110)
 230 001a F0E0      		ldi r31,hi8(110)
 231 001c 8081      		ld r24,Z
 232 001e 8160      		ori r24,lo8(1)
 233 0020 8083      		st Z,r24
 234               	.LSM34:
 235               	/* #APP */
 236               	 ;  369 "solution.c" 1
 237 0022 7894      		sei
 238               	 ;  0 "" 2
 239               	/* epilogue start */
 240               	.LSM35:
 241               	/* #NOAPP */
 242 0024 0895      		ret
 243               	.LFE15:
 245               		.section	.text.setupHero,"ax",@progbits
 246               	.global	setupHero
 248               	setupHero:
 249               	.LFB21:
 250               	.LSM36:
 251 0000 CF92      		push r12
 252 0002 DF92      		push r13
 253 0004 EF92      		push r14
 254 0006 FF92      		push r15
 255 0008 0F93      		push r16
 256 000a 1F93      		push r17
 257               	/* prologue: function */
 258               	/* frame size = 0 */
 259               	.LSM37:
 260 000c 8091 0000 		lds r24,screen_y
 261 0010 9091 0000 		lds r25,(screen_y)+1
 262 0014 62E0      		ldi r22,lo8(2)
 263 0016 70E0      		ldi r23,hi8(2)
 264 0018 0E94 0000 		call __divmodhi4
 265 001c 7B01      		movw r14,r22
 266               	.LVL8:
 267 001e 85E0      		ldi r24,lo8(5)
 268 0020 90E0      		ldi r25,hi8(5)
 269 0022 E80E      		add r14,r24
 270 0024 F91E      		adc r15,r25
 271               	.LSM38:
 272 0026 C090 0000 		lds r12,my_pointer
 273 002a D090 0000 		lds r13,(my_pointer)+1
 274 002e 8091 0000 		lds r24,screen_x
 275 0032 9091 0000 		lds r25,(screen_x)+1
 276 0036 62E0      		ldi r22,lo8(2)
 277 0038 70E0      		ldi r23,hi8(2)
 278 003a 0E94 0000 		call __divmodhi4
 279 003e 8827      		clr r24
 280 0040 77FD      		sbrc r23,7
 281 0042 8095      		com r24
 282 0044 982F      		mov r25,r24
 283 0046 0E94 0000 		call __floatsisf
 284 004a F601      		movw r30,r12
 285 004c 6083      		st Z,r22
 286 004e 7183      		std Z+1,r23
 287 0050 8283      		std Z+2,r24
 288 0052 9383      		std Z+3,r25
 289               	.LSM39:
 290 0054 0027      		clr r16
 291 0056 F7FC      		sbrc r15,7
 292 0058 0095      		com r16
 293 005a 102F      		mov r17,r16
 294               	.LVL9:
 295 005c C801      		movw r24,r16
 296 005e B701      		movw r22,r14
 297 0060 0E94 0000 		call __floatsisf
 298 0064 F601      		movw r30,r12
 299 0066 6483      		std Z+4,r22
 300 0068 7583      		std Z+5,r23
 301 006a 8683      		std Z+6,r24
 302 006c 9783      		std Z+7,r25
 303               	/* epilogue start */
 304               	.LSM40:
 305 006e 1F91      		pop r17
 306 0070 0F91      		pop r16
 307 0072 FF90      		pop r15
 308 0074 EF90      		pop r14
 309               	.LVL10:
 310 0076 DF90      		pop r13
 311 0078 CF90      		pop r12
 312 007a 0895      		ret
 313               	.LFE21:
 315               		.section	.text.isInPit,"ax",@progbits
 316               	.global	isInPit
 318               	isInPit:
 319               	.LFB25:
 320               	.LSM41:
 321               	.LVL11:
 322 0000 0F93      		push r16
 323 0002 1F93      		push r17
 324               	/* prologue: function */
 325               	/* frame size = 0 */
 326 0004 8C01      		movw r16,r24
 327               	.LSM42:
 328 0006 DC01      		movw r26,r24
 329 0008 6D91      		ld r22,X+
 330 000a 7D91      		ld r23,X+
 331 000c 8D91      		ld r24,X+
 332 000e 9C91      		ld r25,X
 333 0010 0E94 0000 		call __fixsfsi
 334               	.LVL12:
 335 0014 FB01      		movw r30,r22
 336               	.LVL13:
 337               	.LSM43:
 338 0016 D801      		movw r26,r16
 339 0018 1496      		adiw r26,4
 340 001a 4D91      		ld r20,X+
 341 001c 5D91      		ld r21,X+
 342 001e 6D91      		ld r22,X+
 343 0020 7C91      		ld r23,X
 344 0022 1797      		sbiw r26,4+3
 345               	.LSM44:
 346 0024 8091 0000 		lds r24,pitLeft
 347 0028 9091 0000 		lds r25,(pitLeft)+1
 348 002c 8E17      		cp r24,r30
 349 002e 9F07      		cpc r25,r31
 350 0030 04F4      		brge .L20
 351 0032 2091 0000 		lds r18,width
 352 0036 8091 0000 		lds r24,pitRight
 353 003a 9091 0000 		lds r25,(pitRight)+1
 354 003e 821B      		sub r24,r18
 355 0040 9109      		sbc r25,__zero_reg__
 356 0042 8E17      		cp r24,r30
 357 0044 9F07      		cpc r25,r31
 358 0046 04F0      		brlt .L20
 359               	.LSM45:
 360 0048 CB01      		movw r24,r22
 361 004a BA01      		movw r22,r20
 362 004c 0E94 0000 		call __fixsfsi
 363               	.LVL14:
 364               	.LSM46:
 365 0050 8091 0000 		lds r24,pitTop
 366 0054 9091 0000 		lds r25,(pitTop)+1
 367 0058 8617      		cp r24,r22
 368 005a 9707      		cpc r25,r23
 369               	.LVL15:
 370 005c 04F4      		brge .L20
 371 005e 30E0      		ldi r19,lo8(0)
 372 0060 2091 0000 		lds r18,height
 373 0064 8091 0000 		lds r24,pitBottom
 374 0068 9091 0000 		lds r25,(pitBottom)+1
 375 006c 821B      		sub r24,r18
 376 006e 9109      		sbc r25,__zero_reg__
 377 0070 8617      		cp r24,r22
 378 0072 9707      		cpc r25,r23
 379 0074 04F4      		brge .L21
 380 0076 31E0      		ldi r19,lo8(1)
 381               	.L21:
 382 0078 81E0      		ldi r24,lo8(1)
 383 007a 3827      		eor r19,r24
 384 007c 232F      		mov r18,r19
 385 007e 30E0      		ldi r19,lo8(0)
 386 0080 00C0      		rjmp .L22
 387               	.LVL16:
 388               	.L20:
 389 0082 20E0      		ldi r18,lo8(0)
 390 0084 30E0      		ldi r19,hi8(0)
 391               	.L22:
 392               	.LSM47:
 393 0086 C901      		movw r24,r18
 394               	/* epilogue start */
 395 0088 1F91      		pop r17
 396 008a 0F91      		pop r16
 397               	.LVL17:
 398 008c 0895      		ret
 399               	.LFE25:
 401               		.section	.text.heroForward,"ax",@progbits
 402               	.global	heroForward
 404               	heroForward:
 405               	.LFB17:
 406               	.LSM48:
 407 0000 6F92      		push r6
 408 0002 7F92      		push r7
 409 0004 8F92      		push r8
 410 0006 9F92      		push r9
 411 0008 AF92      		push r10
 412 000a BF92      		push r11
 413 000c CF92      		push r12
 414 000e DF92      		push r13
 415 0010 EF92      		push r14
 416 0012 FF92      		push r15
 417 0014 0F93      		push r16
 418 0016 1F93      		push r17
 419 0018 CF93      		push r28
 420 001a DF93      		push r29
 421               	/* prologue: function */
 422               	/* frame size = 0 */
 423               	.LSM49:
 424 001c 0091 0000 		lds r16,my_pointer
 425 0020 1091 0000 		lds r17,(my_pointer)+1
 426 0024 C801      		movw r24,r16
 427 0026 0E94 0000 		call isInPit
 428 002a 892B      		or r24,r25
 429 002c 01F0      		breq .L25
 430               	.LSM50:
 431 002e 6090 0000 		lds r6,pitTop
 432 0032 7090 0000 		lds r7,(pitTop)+1
 433               	.LVL18:
 434 0036 82E0      		ldi r24,lo8(2)
 435 0038 90E0      		ldi r25,hi8(2)
 436 003a 680E      		add r6,r24
 437 003c 791E      		adc r7,r25
 438               	.LSM51:
 439 003e A090 0000 		lds r10,pitBottom
 440 0042 B090 0000 		lds r11,(pitBottom)+1
 441               	.LVL19:
 442 0046 ECEF      		ldi r30,lo8(-4)
 443 0048 FFEF      		ldi r31,hi8(-4)
 444 004a AE0E      		add r10,r30
 445 004c BF1E      		adc r11,r31
 446               	.LSM52:
 447 004e 8090 0000 		lds r8,pitLeft
 448 0052 9090 0000 		lds r9,(pitLeft)+1
 449               	.LVL20:
 450 0056 880E      		add r8,r24
 451 0058 991E      		adc r9,r25
 452               	.LSM53:
 453 005a C090 0000 		lds r12,pitRight
 454 005e D090 0000 		lds r13,(pitRight)+1
 455               	.LVL21:
 456 0062 CE0E      		add r12,r30
 457 0064 DF1E      		adc r13,r31
 458 0066 00C0      		rjmp .L26
 459               	.LVL22:
 460               	.L25:
 461               	.LSM54:
 462 0068 A090 0000 		lds r10,screen_y
 463 006c B090 0000 		lds r11,(screen_y)+1
 464               	.LVL23:
 465 0070 0894      		sec
 466 0072 A108      		sbc r10,__zero_reg__
 467 0074 B108      		sbc r11,__zero_reg__
 468               	.LSM55:
 469 0076 C090 0000 		lds r12,screen_x
 470 007a D090 0000 		lds r13,(screen_x)+1
 471               	.LVL24:
 472 007e 0894      		sec
 473 0080 C108      		sbc r12,__zero_reg__
 474 0082 D108      		sbc r13,__zero_reg__
 475 0084 3AE0      		ldi r19,lo8(10)
 476 0086 632E      		mov r6,r19
 477 0088 712C      		mov r7,__zero_reg__
 478               	.LVL25:
 479 008a 22E0      		ldi r18,lo8(2)
 480 008c 822E      		mov r8,r18
 481 008e 912C      		mov r9,__zero_reg__
 482               	.LVL26:
 483               	.L26:
 484               	.LSM56:
 485 0090 8091 0000 		lds r24,Direction
 486 0094 9091 0000 		lds r25,(Direction)+1
 487 0098 892B      		or r24,r25
 488 009a 01F0      		breq .L27
 489 009c 91E0      		ldi r25,lo8(1)
 490 009e E92E      		mov r14,r25
 491 00a0 F12C      		mov r15,__zero_reg__
 492               	.LVL27:
 493 00a2 00C0      		rjmp .L57
 494               	.LVL28:
 495               	.L27:
 496               	.LSM57:
 497 00a4 C091 0000 		lds r28,sword
 498 00a8 D091 0000 		lds r29,(sword)+1
 499 00ac 80E0      		ldi r24,lo8(bitSwordDown)
 500 00ae 90E0      		ldi r25,hi8(bitSwordDown)
 501 00b0 9C87      		std Y+12,r25
 502 00b2 8B87      		std Y+11,r24
 503               	.LSM58:
 504 00b4 8091 0000 		lds r24,gotSword
 505 00b8 9091 0000 		lds r25,(gotSword)+1
 506 00bc 892B      		or r24,r25
 507 00be 01F0      		breq .L29
 508               	.LSM59:
 509 00c0 F801      		movw r30,r16
 510 00c2 8081      		ld r24,Z
 511 00c4 9181      		ldd r25,Z+1
 512 00c6 A281      		ldd r26,Z+2
 513 00c8 B381      		ldd r27,Z+3
 514 00ca 8883      		st Y,r24
 515 00cc 9983      		std Y+1,r25
 516 00ce AA83      		std Y+2,r26
 517 00d0 BB83      		std Y+3,r27
 518               	.LSM60:
 519 00d2 6481      		ldd r22,Z+4
 520 00d4 7581      		ldd r23,Z+5
 521 00d6 8681      		ldd r24,Z+6
 522 00d8 9781      		ldd r25,Z+7
 523 00da 20E0      		ldi r18,lo8(0x40800000)
 524 00dc 30E0      		ldi r19,hi8(0x40800000)
 525 00de 40E8      		ldi r20,hlo8(0x40800000)
 526 00e0 50E4      		ldi r21,hhi8(0x40800000)
 527 00e2 0E94 0000 		call __addsf3
 528 00e6 6C83      		std Y+4,r22
 529 00e8 7D83      		std Y+5,r23
 530 00ea 8E83      		std Y+6,r24
 531 00ec 9F83      		std Y+7,r25
 532               	.L29:
 533               	.LSM61:
 534 00ee B501      		movw r22,r10
 535 00f0 8827      		clr r24
 536 00f2 77FD      		sbrc r23,7
 537 00f4 8095      		com r24
 538 00f6 982F      		mov r25,r24
 539               	.LVL29:
 540 00f8 0E94 0000 		call __floatsisf
 541               	.LVL30:
 542 00fc 9B01      		movw r18,r22
 543 00fe AC01      		movw r20,r24
 544 0100 F801      		movw r30,r16
 545 0102 6481      		ldd r22,Z+4
 546 0104 7581      		ldd r23,Z+5
 547 0106 8681      		ldd r24,Z+6
 548 0108 9781      		ldd r25,Z+7
 549 010a 0E94 0000 		call __gtsf2
 550 010e 1816      		cp __zero_reg__,r24
 551 0110 04F4      		brge .L53
 552 0112 EE24      		clr r14
 553 0114 FF24      		clr r15
 554               	.LVL31:
 555               	.L57:
 556 0116 C0E0      		ldi r28,lo8(0)
 557 0118 D0E0      		ldi r29,hi8(0)
 558               	.LVL32:
 559 011a 00C0      		rjmp .L28
 560               	.LVL33:
 561               	.L53:
 562 011c EE24      		clr r14
 563 011e FF24      		clr r15
 564               	.LVL34:
 565 0120 C1E0      		ldi r28,lo8(1)
 566 0122 D0E0      		ldi r29,hi8(1)
 567               	.LVL35:
 568               	.L28:
 569               	.LSM62:
 570 0124 8091 0000 		lds r24,Direction
 571 0128 9091 0000 		lds r25,(Direction)+1
 572 012c 0197      		sbiw r24,1
 573 012e 01F0      		breq .+2
 574 0130 00C0      		rjmp .L32
 575               	.LSM63:
 576 0132 C091 0000 		lds r28,sword
 577 0136 D091 0000 		lds r29,(sword)+1
 578               	.LVL36:
 579 013a 80E0      		ldi r24,lo8(bitSwordRight)
 580 013c 90E0      		ldi r25,hi8(bitSwordRight)
 581 013e 9C87      		std Y+12,r25
 582 0140 8B87      		std Y+11,r24
 583               	.LSM64:
 584 0142 8091 0000 		lds r24,gotSword
 585 0146 9091 0000 		lds r25,(gotSword)+1
 586 014a 892B      		or r24,r25
 587 014c 01F0      		breq .L33
 588               	.LSM65:
 589 014e F801      		movw r30,r16
 590 0150 6081      		ld r22,Z
 591 0152 7181      		ldd r23,Z+1
 592 0154 8281      		ldd r24,Z+2
 593 0156 9381      		ldd r25,Z+3
 594 0158 20E0      		ldi r18,lo8(0x40800000)
 595 015a 30E0      		ldi r19,hi8(0x40800000)
 596 015c 40E8      		ldi r20,hlo8(0x40800000)
 597 015e 50E4      		ldi r21,hhi8(0x40800000)
 598 0160 0E94 0000 		call __addsf3
 599 0164 6883      		st Y,r22
 600 0166 7983      		std Y+1,r23
 601 0168 8A83      		std Y+2,r24
 602 016a 9B83      		std Y+3,r25
 603               	.LSM66:
 604 016c F801      		movw r30,r16
 605 016e 8481      		ldd r24,Z+4
 606 0170 9581      		ldd r25,Z+5
 607 0172 A681      		ldd r26,Z+6
 608 0174 B781      		ldd r27,Z+7
 609 0176 8C83      		std Y+4,r24
 610 0178 9D83      		std Y+5,r25
 611 017a AE83      		std Y+6,r26
 612 017c BF83      		std Y+7,r27
 613               	.L33:
 614               	.LSM67:
 615 017e B601      		movw r22,r12
 616 0180 8827      		clr r24
 617 0182 77FD      		sbrc r23,7
 618 0184 8095      		com r24
 619 0186 982F      		mov r25,r24
 620               	.LVL37:
 621 0188 0E94 0000 		call __floatsisf
 622               	.LVL38:
 623 018c 9B01      		movw r18,r22
 624 018e AC01      		movw r20,r24
 625 0190 F801      		movw r30,r16
 626 0192 6081      		ld r22,Z
 627 0194 7181      		ldd r23,Z+1
 628 0196 8281      		ldd r24,Z+2
 629 0198 9381      		ldd r25,Z+3
 630 019a 0E94 0000 		call __gtsf2
 631 019e 1816      		cp __zero_reg__,r24
 632 01a0 04F4      		brge .L54
 633 01a2 EE24      		clr r14
 634 01a4 FF24      		clr r15
 635 01a6 00C0      		rjmp .L58
 636               	.L54:
 637 01a8 81E0      		ldi r24,lo8(1)
 638 01aa E82E      		mov r14,r24
 639 01ac F12C      		mov r15,__zero_reg__
 640               	.L58:
 641 01ae C0E0      		ldi r28,lo8(0)
 642 01b0 D0E0      		ldi r29,hi8(0)
 643               	.LVL39:
 644               	.L32:
 645               	.LSM68:
 646 01b2 8091 0000 		lds r24,Direction
 647 01b6 9091 0000 		lds r25,(Direction)+1
 648 01ba 0297      		sbiw r24,2
 649 01bc 01F0      		breq .+2
 650 01be 00C0      		rjmp .L36
 651               	.LSM69:
 652 01c0 C091 0000 		lds r28,sword
 653 01c4 D091 0000 		lds r29,(sword)+1
 654               	.LVL40:
 655 01c8 80E0      		ldi r24,lo8(bitSwordUp)
 656 01ca 90E0      		ldi r25,hi8(bitSwordUp)
 657 01cc 9C87      		std Y+12,r25
 658 01ce 8B87      		std Y+11,r24
 659               	.LSM70:
 660 01d0 8091 0000 		lds r24,gotSword
 661 01d4 9091 0000 		lds r25,(gotSword)+1
 662 01d8 892B      		or r24,r25
 663 01da 01F0      		breq .L37
 664               	.LSM71:
 665 01dc F801      		movw r30,r16
 666 01de 8081      		ld r24,Z
 667 01e0 9181      		ldd r25,Z+1
 668 01e2 A281      		ldd r26,Z+2
 669 01e4 B381      		ldd r27,Z+3
 670 01e6 8883      		st Y,r24
 671 01e8 9983      		std Y+1,r25
 672 01ea AA83      		std Y+2,r26
 673 01ec BB83      		std Y+3,r27
 674               	.LSM72:
 675 01ee 6481      		ldd r22,Z+4
 676 01f0 7581      		ldd r23,Z+5
 677 01f2 8681      		ldd r24,Z+6
 678 01f4 9781      		ldd r25,Z+7
 679 01f6 20E0      		ldi r18,lo8(0x40800000)
 680 01f8 30E0      		ldi r19,hi8(0x40800000)
 681 01fa 40E8      		ldi r20,hlo8(0x40800000)
 682 01fc 50E4      		ldi r21,hhi8(0x40800000)
 683 01fe 0E94 0000 		call __subsf3
 684 0202 6C83      		std Y+4,r22
 685 0204 7D83      		std Y+5,r23
 686 0206 8E83      		std Y+6,r24
 687 0208 9F83      		std Y+7,r25
 688               	.L37:
 689               	.LSM73:
 690 020a B301      		movw r22,r6
 691 020c 8827      		clr r24
 692 020e 77FD      		sbrc r23,7
 693 0210 8095      		com r24
 694 0212 982F      		mov r25,r24
 695               	.LVL41:
 696 0214 0E94 0000 		call __floatsisf
 697               	.LVL42:
 698 0218 9B01      		movw r18,r22
 699 021a AC01      		movw r20,r24
 700 021c F801      		movw r30,r16
 701 021e 6481      		ldd r22,Z+4
 702 0220 7581      		ldd r23,Z+5
 703 0222 8681      		ldd r24,Z+6
 704 0224 9781      		ldd r25,Z+7
 705 0226 0E94 0000 		call __ltsf2
 706 022a 8823      		tst r24
 707 022c 04F4      		brge .L55
 708 022e EE24      		clr r14
 709 0230 FF24      		clr r15
 710 0232 C0E0      		ldi r28,lo8(0)
 711 0234 D0E0      		ldi r29,hi8(0)
 712               	.LVL43:
 713 0236 00C0      		rjmp .L36
 714               	.LVL44:
 715               	.L55:
 716 0238 EE24      		clr r14
 717 023a FF24      		clr r15
 718 023c CFEF      		ldi r28,lo8(-1)
 719 023e DFEF      		ldi r29,hi8(-1)
 720               	.LVL45:
 721               	.L36:
 722               	.LSM74:
 723 0240 8091 0000 		lds r24,Direction
 724 0244 9091 0000 		lds r25,(Direction)+1
 725 0248 0397      		sbiw r24,3
 726 024a 01F0      		breq .+2
 727 024c 00C0      		rjmp .L40
 728               	.LSM75:
 729 024e C091 0000 		lds r28,sword
 730 0252 D091 0000 		lds r29,(sword)+1
 731               	.LVL46:
 732 0256 80E0      		ldi r24,lo8(bitSwordLeft)
 733 0258 90E0      		ldi r25,hi8(bitSwordLeft)
 734 025a 9C87      		std Y+12,r25
 735 025c 8B87      		std Y+11,r24
 736               	.LSM76:
 737 025e 8091 0000 		lds r24,gotSword
 738 0262 9091 0000 		lds r25,(gotSword)+1
 739 0266 892B      		or r24,r25
 740 0268 01F0      		breq .L41
 741               	.LSM77:
 742 026a F801      		movw r30,r16
 743 026c 6081      		ld r22,Z
 744 026e 7181      		ldd r23,Z+1
 745 0270 8281      		ldd r24,Z+2
 746 0272 9381      		ldd r25,Z+3
 747 0274 20E0      		ldi r18,lo8(0x40800000)
 748 0276 30E0      		ldi r19,hi8(0x40800000)
 749 0278 40E8      		ldi r20,hlo8(0x40800000)
 750 027a 50E4      		ldi r21,hhi8(0x40800000)
 751 027c 0E94 0000 		call __subsf3
 752 0280 6883      		st Y,r22
 753 0282 7983      		std Y+1,r23
 754 0284 8A83      		std Y+2,r24
 755 0286 9B83      		std Y+3,r25
 756               	.LSM78:
 757 0288 F801      		movw r30,r16
 758 028a 8481      		ldd r24,Z+4
 759 028c 9581      		ldd r25,Z+5
 760 028e A681      		ldd r26,Z+6
 761 0290 B781      		ldd r27,Z+7
 762 0292 8C83      		std Y+4,r24
 763 0294 9D83      		std Y+5,r25
 764 0296 AE83      		std Y+6,r26
 765 0298 BF83      		std Y+7,r27
 766               	.L41:
 767               	.LSM79:
 768 029a B401      		movw r22,r8
 769 029c 8827      		clr r24
 770 029e 77FD      		sbrc r23,7
 771 02a0 8095      		com r24
 772 02a2 982F      		mov r25,r24
 773               	.LVL47:
 774 02a4 0E94 0000 		call __floatsisf
 775               	.LVL48:
 776 02a8 9B01      		movw r18,r22
 777 02aa AC01      		movw r20,r24
 778 02ac F801      		movw r30,r16
 779 02ae 6081      		ld r22,Z
 780 02b0 7181      		ldd r23,Z+1
 781 02b2 8281      		ldd r24,Z+2
 782 02b4 9381      		ldd r25,Z+3
 783 02b6 0E94 0000 		call __ltsf2
 784 02ba 8823      		tst r24
 785 02bc 04F4      		brge .L56
 786 02be EE24      		clr r14
 787 02c0 FF24      		clr r15
 788 02c2 00C0      		rjmp .L59
 789               	.L56:
 790 02c4 EE24      		clr r14
 791 02c6 EA94      		dec r14
 792 02c8 FE2C      		mov r15,r14
 793               	.L59:
 794 02ca C0E0      		ldi r28,lo8(0)
 795 02cc D0E0      		ldi r29,hi8(0)
 796               	.LVL49:
 797               	.L40:
 798               	.LSM80:
 799 02ce C801      		movw r24,r16
 800 02d0 0E94 0000 		call isInPit
 801 02d4 892B      		or r24,r25
 802 02d6 01F4      		brne .+2
 803 02d8 00C0      		rjmp .L44
 804               	.LBB68:
 805               	.LSM81:
 806 02da F801      		movw r30,r16
 807 02dc 6081      		ld r22,Z
 808 02de 7181      		ldd r23,Z+1
 809 02e0 8281      		ldd r24,Z+2
 810 02e2 9381      		ldd r25,Z+3
 811 02e4 0E94 0000 		call __fixsfsi
 812               	.LSM82:
 813 02e8 F801      		movw r30,r16
 814 02ea 2481      		ldd r18,Z+4
 815 02ec 3581      		ldd r19,Z+5
 816 02ee 4681      		ldd r20,Z+6
 817 02f0 5781      		ldd r21,Z+7
 818               	.LSM83:
 819 02f2 8091 0000 		lds r24,LEFT
 820 02f6 9091 0000 		lds r25,(LEFT)+1
 821 02fa 892B      		or r24,r25
 822 02fc 01F0      		breq .L45
 823 02fe 8091 0000 		lds r24,RIGHT
 824 0302 9091 0000 		lds r25,(RIGHT)+1
 825 0306 892B      		or r24,r25
 826 0308 01F0      		breq .L45
 827 030a C616      		cp r12,r22
 828 030c D706      		cpc r13,r23
 829               	.LVL50:
 830 030e 04F4      		brge .L45
 831               	.LSM84:
 832 0310 84E0      		ldi r24,lo8(4)
 833 0312 90E0      		ldi r25,hi8(4)
 834 0314 C80E      		add r12,r24
 835 0316 D91E      		adc r13,r25
 836 0318 B601      		movw r22,r12
 837 031a 8827      		clr r24
 838 031c 77FD      		sbrc r23,7
 839 031e 8095      		com r24
 840 0320 982F      		mov r25,r24
 841               	.LVL51:
 842 0322 00C0      		rjmp .L60
 843               	.LVL52:
 844               	.L45:
 845               	.LSM85:
 846 0324 8091 0000 		lds r24,LEFT
 847 0328 9091 0000 		lds r25,(LEFT)+1
 848 032c 892B      		or r24,r25
 849 032e 01F0      		breq .L46
 850 0330 8091 0000 		lds r24,RIGHT
 851 0334 9091 0000 		lds r25,(RIGHT)+1
 852 0338 892B      		or r24,r25
 853 033a 01F0      		breq .L46
 854 033c 6815      		cp r22,r8
 855 033e 7905      		cpc r23,r9
 856 0340 04F4      		brge .L46
 857               	.LSM86:
 858 0342 8CEF      		ldi r24,lo8(-4)
 859 0344 9FEF      		ldi r25,hi8(-4)
 860 0346 880E      		add r8,r24
 861 0348 991E      		adc r9,r25
 862 034a B401      		movw r22,r8
 863 034c 8827      		clr r24
 864 034e 77FD      		sbrc r23,7
 865 0350 8095      		com r24
 866 0352 982F      		mov r25,r24
 867               	.LVL53:
 868               	.L60:
 869 0354 0E94 0000 		call __floatsisf
 870 0358 F801      		movw r30,r16
 871 035a 6083      		st Z,r22
 872 035c 7183      		std Z+1,r23
 873 035e 8283      		std Z+2,r24
 874 0360 9383      		std Z+3,r25
 875 0362 00C0      		rjmp .L44
 876               	.LVL54:
 877               	.L46:
 878               	.LSM87:
 879 0364 CA01      		movw r24,r20
 880 0366 B901      		movw r22,r18
 881               	.LVL55:
 882 0368 0E94 0000 		call __fixsfsi
 883               	.LSM88:
 884 036c 8091 0000 		lds r24,LEFT
 885 0370 9091 0000 		lds r25,(LEFT)+1
 886 0374 892B      		or r24,r25
 887 0376 01F0      		breq .L47
 888 0378 8091 0000 		lds r24,RIGHT
 889 037c 9091 0000 		lds r25,(RIGHT)+1
 890 0380 892B      		or r24,r25
 891 0382 01F0      		breq .L47
 892 0384 6615      		cp r22,r6
 893 0386 7705      		cpc r23,r7
 894               	.LVL56:
 895 0388 04F4      		brge .L47
 896               	.LSM89:
 897 038a 8CEF      		ldi r24,lo8(-4)
 898 038c 9FEF      		ldi r25,hi8(-4)
 899 038e 680E      		add r6,r24
 900 0390 791E      		adc r7,r25
 901 0392 B301      		movw r22,r6
 902 0394 8827      		clr r24
 903 0396 77FD      		sbrc r23,7
 904 0398 8095      		com r24
 905 039a 982F      		mov r25,r24
 906               	.LVL57:
 907 039c 00C0      		rjmp .L61
 908               	.LVL58:
 909               	.L47:
 910               	.LSM90:
 911 039e 8091 0000 		lds r24,LEFT
 912 03a2 9091 0000 		lds r25,(LEFT)+1
 913 03a6 892B      		or r24,r25
 914 03a8 01F0      		breq .L44
 915 03aa 8091 0000 		lds r24,RIGHT
 916 03ae 9091 0000 		lds r25,(RIGHT)+1
 917 03b2 892B      		or r24,r25
 918 03b4 01F0      		breq .L44
 919 03b6 A616      		cp r10,r22
 920 03b8 B706      		cpc r11,r23
 921 03ba 04F4      		brge .L44
 922               	.LSM91:
 923 03bc 84E0      		ldi r24,lo8(4)
 924 03be 90E0      		ldi r25,hi8(4)
 925 03c0 A80E      		add r10,r24
 926 03c2 B91E      		adc r11,r25
 927 03c4 B501      		movw r22,r10
 928 03c6 8827      		clr r24
 929 03c8 77FD      		sbrc r23,7
 930 03ca 8095      		com r24
 931 03cc 982F      		mov r25,r24
 932               	.LVL59:
 933               	.L61:
 934 03ce 0E94 0000 		call __floatsisf
 935 03d2 F801      		movw r30,r16
 936 03d4 6483      		std Z+4,r22
 937 03d6 7583      		std Z+5,r23
 938 03d8 8683      		std Z+6,r24
 939 03da 9783      		std Z+7,r25
 940               	.LVL60:
 941               	.L44:
 942               	.LBE68:
 943               	.LSM92:
 944 03dc B701      		movw r22,r14
 945 03de 8827      		clr r24
 946 03e0 77FD      		sbrc r23,7
 947 03e2 8095      		com r24
 948 03e4 982F      		mov r25,r24
 949               	.LVL61:
 950 03e6 0E94 0000 		call __floatsisf
 951               	.LVL62:
 952 03ea 9B01      		movw r18,r22
 953 03ec AC01      		movw r20,r24
 954 03ee F801      		movw r30,r16
 955 03f0 6081      		ld r22,Z
 956 03f2 7181      		ldd r23,Z+1
 957 03f4 8281      		ldd r24,Z+2
 958 03f6 9381      		ldd r25,Z+3
 959 03f8 0E94 0000 		call __addsf3
 960 03fc F801      		movw r30,r16
 961 03fe 6083      		st Z,r22
 962 0400 7183      		std Z+1,r23
 963 0402 8283      		std Z+2,r24
 964 0404 9383      		std Z+3,r25
 965               	.LSM93:
 966 0406 BE01      		movw r22,r28
 967 0408 8827      		clr r24
 968 040a 77FD      		sbrc r23,7
 969 040c 8095      		com r24
 970 040e 982F      		mov r25,r24
 971               	.LVL63:
 972 0410 0E94 0000 		call __floatsisf
 973               	.LVL64:
 974 0414 9B01      		movw r18,r22
 975 0416 AC01      		movw r20,r24
 976 0418 F801      		movw r30,r16
 977 041a 6481      		ldd r22,Z+4
 978 041c 7581      		ldd r23,Z+5
 979 041e 8681      		ldd r24,Z+6
 980 0420 9781      		ldd r25,Z+7
 981 0422 0E94 0000 		call __addsf3
 982 0426 F801      		movw r30,r16
 983 0428 6483      		std Z+4,r22
 984 042a 7583      		std Z+5,r23
 985 042c 8683      		std Z+6,r24
 986 042e 9783      		std Z+7,r25
 987               	/* epilogue start */
 988               	.LSM94:
 989 0430 DF91      		pop r29
 990 0432 CF91      		pop r28
 991 0434 1F91      		pop r17
 992 0436 0F91      		pop r16
 993 0438 FF90      		pop r15
 994 043a EF90      		pop r14
 995 043c DF90      		pop r13
 996 043e CF90      		pop r12
 997               	.LVL65:
 998 0440 BF90      		pop r11
 999 0442 AF90      		pop r10
 1000               	.LVL66:
 1001 0444 9F90      		pop r9
 1002 0446 8F90      		pop r8
 1003               	.LVL67:
 1004 0448 7F90      		pop r7
 1005 044a 6F90      		pop r6
 1006               	.LVL68:
 1007 044c 0895      		ret
 1008               	.LFE17:
 1010               		.section	.text.drawPit,"ax",@progbits
 1011               	.global	drawPit
 1013               	drawPit:
 1014               	.LFB24:
 1015               	.LSM95:
 1016               	/* prologue: function */
 1017               	/* frame size = 0 */
 1018               	.LSM96:
 1019 0000 2091 0000 		lds r18,pitTop
 1020 0004 8091 0000 		lds r24,pitLeft
 1021 0008 622F      		mov r22,r18
 1022 000a 4091 0000 		lds r20,pitRight
 1023 000e 0E94 0000 		call draw_line
 1024               	.LSM97:
 1025 0012 2091 0000 		lds r18,pitBottom
 1026 0016 8091 0000 		lds r24,pitLeft
 1027 001a 622F      		mov r22,r18
 1028 001c 4091 0000 		lds r20,pitRight
 1029 0020 0E94 0000 		call draw_line
 1030               	.LSM98:
 1031 0024 4091 0000 		lds r20,pitLeft
 1032 0028 842F      		mov r24,r20
 1033 002a 6091 0000 		lds r22,pitTop
 1034 002e 2091 0000 		lds r18,pitBottom
 1035 0032 0E94 0000 		call draw_line
 1036               	.LSM99:
 1037 0036 4091 0000 		lds r20,pitRight
 1038 003a 842F      		mov r24,r20
 1039 003c 6091 0000 		lds r22,pitTop
 1040 0040 2091 0000 		lds r18,pitBottom
 1041 0044 0E94 0000 		call draw_line
 1042               	/* epilogue start */
 1043               	.LSM100:
 1044 0048 0895      		ret
 1045               	.LFE24:
 1047               		.data
 1048               	.LC0:
 1049 0000 4C3A 2000 		.string	"L: "
 1050               	.LC1:
 1051 0004 533A 2000 		.string	"S: "
 1052               		.section	.text.drawScreen,"ax",@progbits
 1053               	.global	drawScreen
 1055               	drawScreen:
 1056               	.LFB19:
 1057               	.LSM101:
 1058               	/* prologue: function */
 1059               	/* frame size = 0 */
 1060               	.LSM102:
 1061 0000 80E0      		ldi r24,lo8(0)
 1062 0002 68E0      		ldi r22,lo8(8)
 1063 0004 4091 0000 		lds r20,screen_x_Full
 1064 0008 28E0      		ldi r18,lo8(8)
 1065 000a 0E94 0000 		call draw_line
 1066               	.LSM103:
 1067 000e 80E0      		ldi r24,lo8(0)
 1068 0010 68E0      		ldi r22,lo8(8)
 1069 0012 40E0      		ldi r20,lo8(0)
 1070 0014 2091 0000 		lds r18,screen_y_Full
 1071 0018 0E94 0000 		call draw_line
 1072               	.LSM104:
 1073 001c 4091 0000 		lds r20,screen_x_Full
 1074 0020 842F      		mov r24,r20
 1075 0022 68E0      		ldi r22,lo8(8)
 1076 0024 2091 0000 		lds r18,screen_y_Full
 1077 0028 0E94 0000 		call draw_line
 1078               	.LSM105:
 1079 002c 2091 0000 		lds r18,screen_y_Full
 1080 0030 80E0      		ldi r24,lo8(0)
 1081 0032 622F      		mov r22,r18
 1082 0034 4091 0000 		lds r20,screen_x_Full
 1083 0038 0E94 0000 		call draw_line
 1084               	.LSM106:
 1085 003c 80E0      		ldi r24,lo8(.LC0)
 1086 003e 90E0      		ldi r25,hi8(.LC0)
 1087 0040 60E0      		ldi r22,lo8(0)
 1088 0042 40E0      		ldi r20,lo8(0)
 1089 0044 0E94 0000 		call draw_string
 1090               	.LSM107:
 1091 0048 8091 0000 		lds r24,Lives
 1092 004c 805D      		subi r24,lo8(-(48))
 1093 004e 6BE0      		ldi r22,lo8(11)
 1094 0050 40E0      		ldi r20,lo8(0)
 1095 0052 0E94 0000 		call draw_character
 1096               	.LSM108:
 1097 0056 80E0      		ldi r24,lo8(.LC1)
 1098 0058 90E0      		ldi r25,hi8(.LC1)
 1099 005a 65E1      		ldi r22,lo8(21)
 1100 005c 40E0      		ldi r20,lo8(0)
 1101 005e 0E94 0000 		call draw_string
 1102               	.LSM109:
 1103 0062 8091 0000 		lds r24,Score
 1104 0066 805D      		subi r24,lo8(-(48))
 1105 0068 6FE1      		ldi r22,lo8(31)
 1106 006a 40E0      		ldi r20,lo8(0)
 1107 006c 0E94 0000 		call draw_character
 1108               	.LSM110:
 1109 0070 8091 0000 		lds r24,Direction
 1110 0074 9091 0000 		lds r25,(Direction)+1
 1111 0078 805D      		subi r24,lo8(-(48))
 1112 007a 6EE4      		ldi r22,lo8(78)
 1113 007c 40E0      		ldi r20,lo8(0)
 1114 007e 0E94 0000 		call draw_character
 1115               	.LSM111:
 1116 0082 8091 0000 		lds r24,my_pointer
 1117 0086 9091 0000 		lds r25,(my_pointer)+1
 1118 008a 0E94 0000 		call isInPit
 1119 008e 805D      		subi r24,lo8(-(48))
 1120 0090 6CE3      		ldi r22,lo8(60)
 1121 0092 40E0      		ldi r20,lo8(0)
 1122 0094 0E94 0000 		call draw_character
 1123               	/* epilogue start */
 1124               	.LSM112:
 1125 0098 0895      		ret
 1126               	.LFE19:
 1128               		.data
 1129               	.LC2:
 1130 0008 4761 6D65 		.string	"Game Start In: "
 1130      2053 7461 
 1130      7274 2049 
 1130      6E3A 2000 
 1131               		.section	.text.CountDown,"ax",@progbits
 1132               	.global	CountDown
 1134               	CountDown:
 1135               	.LFB9:
 1136               	.LSM113:
 1137 0000 1F93      		push r17
 1138 0002 CF93      		push r28
 1139 0004 DF93      		push r29
 1140               	/* prologue: function */
 1141               	/* frame size = 0 */
 1142               	.LSM114:
 1143 0006 13E3      		ldi r17,lo8(51)
 1144               	.LBB69:
 1145               	.LBB70:
 1146               	.LBB71:
 1147               	.LBB72:
 1148               	.LBB73:
 1149               	.LSM115:
 1150 0008 C0E9      		ldi r28,lo8(400)
 1151 000a D1E0      		ldi r29,hi8(400)
 1152               	.LVL69:
 1153               	.L68:
 1154               	.LBE73:
 1155               	.LBE72:
 1156               	.LBE71:
 1157               	.LBE70:
 1158               	.LSM116:
 1159 000c 0E94 0000 		call clear
 1160               	.LVL70:
 1161               	.LSM117:
 1162 0010 80E0      		ldi r24,lo8(.LC2)
 1163 0012 90E0      		ldi r25,hi8(.LC2)
 1164 0014 62E0      		ldi r22,lo8(2)
 1165 0016 46E1      		ldi r20,lo8(22)
 1166 0018 0E94 0000 		call draw_string
 1167               	.LSM118:
 1168 001c 812F      		mov r24,r17
 1169 001e 6BE4      		ldi r22,lo8(75)
 1170 0020 46E1      		ldi r20,lo8(22)
 1171 0022 0E94 0000 		call draw_character
 1172               	.LSM119:
 1173 0026 0E94 0000 		call refresh
 1174 002a 80E1      		ldi r24,lo8(10000)
 1175 002c 97E2      		ldi r25,hi8(10000)
 1176               	.LVL71:
 1177               	.L67:
 1178               	.LBB77:
 1179               	.LBB76:
 1180               	.LBB75:
 1181               	.LBB74:
 1182               	.LSM120:
 1183 002e FE01      		movw r30,r28
 1184               	.LVL72:
 1185               	/* #APP */
 1186               	 ;  105 "c:/winavr-20100110/lib/gcc/../../avr/include/util/delay_basic.h" 1
 1187 0030 3197      		1: sbiw r30,1
 1188 0032 01F4      		brne 1b
 1189               	 ;  0 "" 2
 1190               	/* #NOAPP */
 1191               	.LBE74:
 1192               	.LBE75:
 1193               	.LSM121:
 1194 0034 0197      		sbiw r24,1
 1195               	.LSM122:
 1196 0036 01F4      		brne .L67
 1197 0038 1150      		subi r17,lo8(-(-1))
 1198               	.LBE76:
 1199               	.LBE77:
 1200               	.LSM123:
 1201 003a 1033      		cpi r17,lo8(48)
 1202 003c 01F4      		brne .L68
 1203               	/* epilogue start */
 1204               	.LBE69:
 1205               	.LSM124:
 1206 003e DF91      		pop r29
 1207 0040 CF91      		pop r28
 1208 0042 1F91      		pop r17
 1209 0044 0895      		ret
 1210               	.LFE9:
 1212               		.section	.text.seedWithButtonPress,"ax",@progbits
 1213               	.global	seedWithButtonPress
 1215               	seedWithButtonPress:
 1216               	.LFB12:
 1217               	.LSM125:
 1218               	/* prologue: function */
 1219               	/* frame size = 0 */
 1220               	.LSM126:
 1221 0000 5E9A      		sbi 43-32,6
 1222               	.LSM127:
 1223 0002 84B1      		in r24,36-32
 1224 0004 8C60      		ori r24,lo8(12)
 1225 0006 84B9      		out 36-32,r24
 1226 0008 20E0      		ldi r18,lo8(0)
 1227 000a 30E0      		ldi r19,hi8(0)
 1228               	.LVL73:
 1229 000c 00C0      		rjmp .L73
 1230               	.L75:
 1231               	.LSM128:
 1232 000e 2F5F      		subi r18,lo8(-(1))
 1233 0010 3F4F      		sbci r19,hi8(-(1))
 1234               	.L73:
 1235               	.LSM129:
 1236 0012 8091 0000 		lds r24,RIGHT
 1237 0016 9091 0000 		lds r25,(RIGHT)+1
 1238 001a 892B      		or r24,r25
 1239 001c 01F4      		brne .L74
 1240 001e 8091 0000 		lds r24,LEFT
 1241 0022 9091 0000 		lds r25,(LEFT)+1
 1242 0026 892B      		or r24,r25
 1243 0028 01F0      		breq .L75
 1244               	.L74:
 1245               	.LSM130:
 1246 002a C901      		movw r24,r18
 1247 002c 0E94 0000 		call srand
 1248               	.LVL74:
 1249               	.LSM131:
 1250 0030 1BB8      		out 43-32,__zero_reg__
 1251               	/* epilogue start */
 1252               	.LSM132:
 1253 0032 0895      		ret
 1254               	.LFE12:
 1256               		.section	.text.randInRange,"ax",@progbits
 1257               	.global	randInRange
 1259               	randInRange:
 1260               	.LFB11:
 1261               	.LSM133:
 1262               	.LVL75:
 1263 0000 EF92      		push r14
 1264 0002 FF92      		push r15
 1265 0004 0F93      		push r16
 1266 0006 1F93      		push r17
 1267               	/* prologue: function */
 1268               	/* frame size = 0 */
 1269 0008 8C01      		movw r16,r24
 1270 000a 7B01      		movw r14,r22
 1271               	.LSM134:
 1272 000c 0E94 0000 		call rand
 1273               	.LVL76:
 1274 0010 E01A      		sub r14,r16
 1275 0012 F10A      		sbc r15,r17
 1276 0014 0894      		sec
 1277 0016 E11C      		adc r14,__zero_reg__
 1278 0018 F11C      		adc r15,__zero_reg__
 1279 001a B701      		movw r22,r14
 1280 001c 0E94 0000 		call __divmodhi4
 1281 0020 9C01      		movw r18,r24
 1282 0022 200F      		add r18,r16
 1283 0024 311F      		adc r19,r17
 1284               	.LSM135:
 1285 0026 C901      		movw r24,r18
 1286               	/* epilogue start */
 1287 0028 1F91      		pop r17
 1288 002a 0F91      		pop r16
 1289               	.LVL77:
 1290 002c FF90      		pop r15
 1291 002e EF90      		pop r14
 1292               	.LVL78:
 1293 0030 0895      		ret
 1294               	.LFE11:
 1296               		.section	.text.setupSword,"ax",@progbits
 1297               	.global	setupSword
 1299               	setupSword:
 1300               	.LFB26:
 1301               	.LSM136:
 1302 0000 8F92      		push r8
 1303 0002 9F92      		push r9
 1304 0004 AF92      		push r10
 1305 0006 BF92      		push r11
 1306 0008 CF92      		push r12
 1307 000a DF92      		push r13
 1308 000c EF92      		push r14
 1309 000e FF92      		push r15
 1310 0010 0F93      		push r16
 1311 0012 1F93      		push r17
 1312               	/* prologue: function */
 1313               	/* frame size = 0 */
 1314               	.LSM137:
 1315 0014 6091 0000 		lds r22,screen_x
 1316 0018 7091 0000 		lds r23,(screen_x)+1
 1317 001c 82E0      		ldi r24,lo8(2)
 1318 001e 90E0      		ldi r25,hi8(2)
 1319 0020 0E94 0000 		call randInRange
 1320 0024 7C01      		movw r14,r24
 1321               	.LVL79:
 1322               	.LSM138:
 1323 0026 6091 0000 		lds r22,screen_y
 1324 002a 7091 0000 		lds r23,(screen_y)+1
 1325 002e 89E0      		ldi r24,lo8(9)
 1326 0030 90E0      		ldi r25,hi8(9)
 1327 0032 0E94 0000 		call randInRange
 1328 0036 5C01      		movw r10,r24
 1329               	.LVL80:
 1330               	.LSM139:
 1331 0038 8090 0000 		lds r8,sword
 1332 003c 9090 0000 		lds r9,(sword)+1
 1333 0040 0027      		clr r16
 1334 0042 F7FC      		sbrc r15,7
 1335 0044 0095      		com r16
 1336 0046 102F      		mov r17,r16
 1337               	.LVL81:
 1338 0048 C801      		movw r24,r16
 1339 004a B701      		movw r22,r14
 1340 004c 0E94 0000 		call __floatsisf
 1341 0050 F401      		movw r30,r8
 1342 0052 6083      		st Z,r22
 1343 0054 7183      		std Z+1,r23
 1344 0056 8283      		std Z+2,r24
 1345 0058 9383      		std Z+3,r25
 1346               	.LSM140:
 1347 005a CC24      		clr r12
 1348 005c B7FC      		sbrc r11,7
 1349 005e C094      		com r12
 1350 0060 DC2C      		mov r13,r12
 1351               	.LVL82:
 1352 0062 C601      		movw r24,r12
 1353 0064 B501      		movw r22,r10
 1354 0066 0E94 0000 		call __floatsisf
 1355 006a F401      		movw r30,r8
 1356 006c 6483      		std Z+4,r22
 1357 006e 7583      		std Z+5,r23
 1358 0070 8683      		std Z+6,r24
 1359 0072 9783      		std Z+7,r25
 1360               	/* epilogue start */
 1361               	.LSM141:
 1362 0074 1F91      		pop r17
 1363 0076 0F91      		pop r16
 1364 0078 FF90      		pop r15
 1365 007a EF90      		pop r14
 1366               	.LVL83:
 1367 007c DF90      		pop r13
 1368 007e CF90      		pop r12
 1369 0080 BF90      		pop r11
 1370 0082 AF90      		pop r10
 1371               	.LVL84:
 1372 0084 9F90      		pop r9
 1373 0086 8F90      		pop r8
 1374 0088 0895      		ret
 1375               	.LFE26:
 1377               		.section	.text.setupPit,"ax",@progbits
 1378               	.global	setupPit
 1380               	setupPit:
 1381               	.LFB23:
 1382               	.LSM142:
 1383 0000 EF92      		push r14
 1384 0002 FF92      		push r15
 1385 0004 0F93      		push r16
 1386 0006 1F93      		push r17
 1387               	/* prologue: function */
 1388               	/* frame size = 0 */
 1389               	.LSM143:
 1390 0008 86E0      		ldi r24,lo8(6)
 1391 000a 90E0      		ldi r25,hi8(6)
 1392 000c 6CE0      		ldi r22,lo8(12)
 1393 000e 70E0      		ldi r23,hi8(12)
 1394 0010 0E94 0000 		call randInRange
 1395 0014 8C01      		movw r16,r24
 1396               	.LVL85:
 1397               	.LSM144:
 1398 0016 86E0      		ldi r24,lo8(6)
 1399 0018 90E0      		ldi r25,hi8(6)
 1400 001a 6CE0      		ldi r22,lo8(12)
 1401 001c 70E0      		ldi r23,hi8(12)
 1402 001e 0E94 0000 		call randInRange
 1403 0022 7C01      		movw r14,r24
 1404               	.LVL86:
 1405               	.LSM145:
 1406 0024 6091 0000 		lds r22,screen_x_Full
 1407 0028 7091 0000 		lds r23,(screen_x_Full)+1
 1408 002c 6451      		subi r22,lo8(-(-20))
 1409 002e 7040      		sbci r23,hi8(-(-20))
 1410 0030 84E1      		ldi r24,lo8(20)
 1411 0032 90E0      		ldi r25,hi8(20)
 1412 0034 0E94 0000 		call randInRange
 1413 0038 9093 0000 		sts (pitLeft)+1,r25
 1414 003c 8093 0000 		sts pitLeft,r24
 1415               	.LSM146:
 1416 0040 800F      		add r24,r16
 1417 0042 911F      		adc r25,r17
 1418 0044 9093 0000 		sts (pitRight)+1,r25
 1419 0048 8093 0000 		sts pitRight,r24
 1420               	.LSM147:
 1421 004c 6091 0000 		lds r22,screen_y_Full
 1422 0050 7091 0000 		lds r23,(screen_y_Full)+1
 1423 0054 6451      		subi r22,lo8(-(-20))
 1424 0056 7040      		sbci r23,hi8(-(-20))
 1425 0058 8DE1      		ldi r24,lo8(29)
 1426 005a 90E0      		ldi r25,hi8(29)
 1427 005c 0E94 0000 		call randInRange
 1428 0060 9093 0000 		sts (pitTop)+1,r25
 1429 0064 8093 0000 		sts pitTop,r24
 1430               	.LSM148:
 1431 0068 8E0D      		add r24,r14
 1432 006a 9F1D      		adc r25,r15
 1433 006c 9093 0000 		sts (pitBottom)+1,r25
 1434 0070 8093 0000 		sts pitBottom,r24
 1435               	.LSM149:
 1436 0074 0E94 0000 		call drawPit
 1437               	/* epilogue start */
 1438               	.LSM150:
 1439 0078 1F91      		pop r17
 1440 007a 0F91      		pop r16
 1441               	.LVL87:
 1442 007c FF90      		pop r15
 1443 007e EF90      		pop r14
 1444               	.LVL88:
 1445 0080 0895      		ret
 1446               	.LFE23:
 1448               		.section	.text.setupZombies,"ax",@progbits
 1449               	.global	setupZombies
 1451               	setupZombies:
 1452               	.LFB20:
 1453               	.LSM151:
 1454 0000 2F92      		push r2
 1455 0002 3F92      		push r3
 1456 0004 4F92      		push r4
 1457 0006 5F92      		push r5
 1458 0008 6F92      		push r6
 1459 000a 7F92      		push r7
 1460 000c 8F92      		push r8
 1461 000e 9F92      		push r9
 1462 0010 AF92      		push r10
 1463 0012 BF92      		push r11
 1464 0014 CF92      		push r12
 1465 0016 DF92      		push r13
 1466 0018 EF92      		push r14
 1467 001a FF92      		push r15
 1468 001c 0F93      		push r16
 1469 001e 1F93      		push r17
 1470 0020 CF93      		push r28
 1471 0022 DF93      		push r29
 1472               	/* prologue: function */
 1473               	/* frame size = 0 */
 1474               	.LSM152:
 1475 0024 8091 0000 		lds r24,screen_x
 1476 0028 9091 0000 		lds r25,(screen_x)+1
 1477 002c 62E0      		ldi r22,lo8(2)
 1478 002e 70E0      		ldi r23,hi8(2)
 1479 0030 0E94 0000 		call __divmodhi4
 1480 0034 4B01      		movw r8,r22
 1481               	.LSM153:
 1482 0036 8091 0000 		lds r24,screen_y
 1483 003a 9091 0000 		lds r25,(screen_y)+1
 1484 003e 62E0      		ldi r22,lo8(2)
 1485 0040 70E0      		ldi r23,hi8(2)
 1486 0042 0E94 0000 		call __divmodhi4
 1487 0046 1B01      		movw r2,r22
 1488               	.LBB78:
 1489               	.LSM154:
 1490 0048 56EF      		ldi r21,lo8(-10)
 1491 004a 452E      		mov r4,r21
 1492 004c 5FEF      		ldi r21,hi8(-10)
 1493 004e 552E      		mov r5,r21
 1494 0050 480C      		add r4,r8
 1495 0052 591C      		adc r5,r9
 1496               	.LVL89:
 1497 0054 81E0      		ldi r24,lo8(1)
 1498 0056 90E0      		ldi r25,hi8(1)
 1499 0058 B201      		movw r22,r4
 1500 005a 0E94 0000 		call randInRange
 1501 005e A82E      		mov r10,r24
 1502               	.LSM155:
 1503 0060 6091 0000 		lds r22,screen_y
 1504 0064 7091 0000 		lds r23,(screen_y)+1
 1505 0068 6150      		subi r22,lo8(-(-1))
 1506 006a 7040      		sbci r23,hi8(-(-1))
 1507 006c 89E0      		ldi r24,lo8(9)
 1508 006e 90E0      		ldi r25,hi8(9)
 1509 0070 0E94 0000 		call randInRange
 1510 0074 E82E      		mov r14,r24
 1511               	.LSM156:
 1512 0076 6090 0000 		lds r6,zombie
 1513 007a 7090 0000 		lds r7,(zombie)+1
 1514 007e BB24      		clr r11
 1515 0080 CC24      		clr r12
 1516 0082 DD24      		clr r13
 1517 0084 C601      		movw r24,r12
 1518 0086 B501      		movw r22,r10
 1519 0088 0E94 0000 		call __floatunsisf
 1520 008c F301      		movw r30,r6
 1521 008e 6083      		st Z,r22
 1522 0090 7183      		std Z+1,r23
 1523 0092 8283      		std Z+2,r24
 1524 0094 9383      		std Z+3,r25
 1525               	.LSM157:
 1526 0096 FF24      		clr r15
 1527 0098 00E0      		ldi r16,lo8(0)
 1528 009a 10E0      		ldi r17,hi8(0)
 1529 009c C801      		movw r24,r16
 1530 009e B701      		movw r22,r14
 1531 00a0 0E94 0000 		call __floatunsisf
 1532 00a4 F301      		movw r30,r6
 1533 00a6 6483      		std Z+4,r22
 1534 00a8 7583      		std Z+5,r23
 1535 00aa 8683      		std Z+6,r24
 1536 00ac 9783      		std Z+7,r25
 1537               	.LSM158:
 1538 00ae 81E0      		ldi r24,lo8(1)
 1539 00b0 90E0      		ldi r25,hi8(1)
 1540 00b2 B201      		movw r22,r4
 1541 00b4 0E94 0000 		call randInRange
 1542 00b8 A82E      		mov r10,r24
 1543               	.LSM159:
 1544 00ba 6091 0000 		lds r22,screen_y
 1545 00be 7091 0000 		lds r23,(screen_y)+1
 1546 00c2 6150      		subi r22,lo8(-(-1))
 1547 00c4 7040      		sbci r23,hi8(-(-1))
 1548 00c6 89E0      		ldi r24,lo8(9)
 1549 00c8 90E0      		ldi r25,hi8(9)
 1550 00ca 0E94 0000 		call randInRange
 1551 00ce E82E      		mov r14,r24
 1552               	.LSM160:
 1553 00d0 6090 0000 		lds r6,zombie+2
 1554 00d4 7090 0000 		lds r7,(zombie+2)+1
 1555 00d8 BB24      		clr r11
 1556 00da CC24      		clr r12
 1557 00dc DD24      		clr r13
 1558 00de C601      		movw r24,r12
 1559 00e0 B501      		movw r22,r10
 1560 00e2 0E94 0000 		call __floatunsisf
 1561 00e6 F301      		movw r30,r6
 1562 00e8 6083      		st Z,r22
 1563 00ea 7183      		std Z+1,r23
 1564 00ec 8283      		std Z+2,r24
 1565 00ee 9383      		std Z+3,r25
 1566               	.LSM161:
 1567 00f0 FF24      		clr r15
 1568 00f2 00E0      		ldi r16,lo8(0)
 1569 00f4 10E0      		ldi r17,hi8(0)
 1570 00f6 C801      		movw r24,r16
 1571 00f8 B701      		movw r22,r14
 1572 00fa 0E94 0000 		call __floatunsisf
 1573 00fe F301      		movw r30,r6
 1574 0100 6483      		std Z+4,r22
 1575 0102 7583      		std Z+5,r23
 1576 0104 8683      		std Z+6,r24
 1577 0106 9783      		std Z+7,r25
 1578               	.LBE78:
 1579               	.LBB79:
 1580               	.LSM162:
 1581 0108 8AE0      		ldi r24,lo8(10)
 1582 010a 90E0      		ldi r25,hi8(10)
 1583 010c 880E      		add r8,r24
 1584 010e 991E      		adc r9,r25
 1585               	.LVL90:
 1586 0110 6091 0000 		lds r22,screen_x
 1587 0114 7091 0000 		lds r23,(screen_x)+1
 1588 0118 C401      		movw r24,r8
 1589 011a 0E94 0000 		call randInRange
 1590 011e A82E      		mov r10,r24
 1591               	.LSM163:
 1592 0120 6091 0000 		lds r22,screen_y
 1593 0124 7091 0000 		lds r23,(screen_y)+1
 1594 0128 6150      		subi r22,lo8(-(-1))
 1595 012a 7040      		sbci r23,hi8(-(-1))
 1596 012c 89E0      		ldi r24,lo8(9)
 1597 012e 90E0      		ldi r25,hi8(9)
 1598 0130 0E94 0000 		call randInRange
 1599 0134 E82E      		mov r14,r24
 1600               	.LSM164:
 1601 0136 6090 0000 		lds r6,zombie+4
 1602 013a 7090 0000 		lds r7,(zombie+4)+1
 1603 013e BB24      		clr r11
 1604 0140 CC24      		clr r12
 1605 0142 DD24      		clr r13
 1606 0144 C601      		movw r24,r12
 1607 0146 B501      		movw r22,r10
 1608 0148 0E94 0000 		call __floatunsisf
 1609 014c F301      		movw r30,r6
 1610 014e 6083      		st Z,r22
 1611 0150 7183      		std Z+1,r23
 1612 0152 8283      		std Z+2,r24
 1613 0154 9383      		std Z+3,r25
 1614               	.LSM165:
 1615 0156 FF24      		clr r15
 1616 0158 00E0      		ldi r16,lo8(0)
 1617 015a 10E0      		ldi r17,hi8(0)
 1618 015c C801      		movw r24,r16
 1619 015e B701      		movw r22,r14
 1620 0160 0E94 0000 		call __floatunsisf
 1621 0164 F301      		movw r30,r6
 1622 0166 6483      		std Z+4,r22
 1623 0168 7583      		std Z+5,r23
 1624 016a 8683      		std Z+6,r24
 1625 016c 9783      		std Z+7,r25
 1626               	.LSM166:
 1627 016e 6091 0000 		lds r22,screen_x
 1628 0172 7091 0000 		lds r23,(screen_x)+1
 1629 0176 C401      		movw r24,r8
 1630 0178 0E94 0000 		call randInRange
 1631 017c A82E      		mov r10,r24
 1632               	.LSM167:
 1633 017e 6091 0000 		lds r22,screen_y
 1634 0182 7091 0000 		lds r23,(screen_y)+1
 1635 0186 6150      		subi r22,lo8(-(-1))
 1636 0188 7040      		sbci r23,hi8(-(-1))
 1637 018a 89E0      		ldi r24,lo8(9)
 1638 018c 90E0      		ldi r25,hi8(9)
 1639 018e 0E94 0000 		call randInRange
 1640 0192 E82E      		mov r14,r24
 1641               	.LSM168:
 1642 0194 8090 0000 		lds r8,zombie+6
 1643 0198 9090 0000 		lds r9,(zombie+6)+1
 1644 019c BB24      		clr r11
 1645 019e CC24      		clr r12
 1646 01a0 DD24      		clr r13
 1647 01a2 C601      		movw r24,r12
 1648 01a4 B501      		movw r22,r10
 1649 01a6 0E94 0000 		call __floatunsisf
 1650 01aa F401      		movw r30,r8
 1651 01ac 6083      		st Z,r22
 1652 01ae 7183      		std Z+1,r23
 1653 01b0 8283      		std Z+2,r24
 1654 01b2 9383      		std Z+3,r25
 1655               	.LSM169:
 1656 01b4 FF24      		clr r15
 1657 01b6 00E0      		ldi r16,lo8(0)
 1658 01b8 10E0      		ldi r17,hi8(0)
 1659 01ba C801      		movw r24,r16
 1660 01bc B701      		movw r22,r14
 1661 01be 0E94 0000 		call __floatunsisf
 1662 01c2 F401      		movw r30,r8
 1663 01c4 6483      		std Z+4,r22
 1664 01c6 7583      		std Z+5,r23
 1665 01c8 8683      		std Z+6,r24
 1666 01ca 9783      		std Z+7,r25
 1667               	.LBE79:
 1668               	.LBB80:
 1669               	.LSM170:
 1670 01cc 6091 0000 		lds r22,screen_x
 1671 01d0 7091 0000 		lds r23,(screen_x)+1
 1672 01d4 81E0      		ldi r24,lo8(1)
 1673 01d6 90E0      		ldi r25,hi8(1)
 1674 01d8 0E94 0000 		call randInRange
 1675 01dc E82E      		mov r14,r24
 1676               	.LSM171:
 1677 01de 4BEF      		ldi r20,lo8(-5)
 1678 01e0 642E      		mov r6,r20
 1679 01e2 4FEF      		ldi r20,hi8(-5)
 1680 01e4 742E      		mov r7,r20
 1681 01e6 620C      		add r6,r2
 1682 01e8 731C      		adc r7,r3
 1683 01ea 89E0      		ldi r24,lo8(9)
 1684 01ec 90E0      		ldi r25,hi8(9)
 1685 01ee B301      		movw r22,r6
 1686 01f0 0E94 0000 		call randInRange
 1687 01f4 A82E      		mov r10,r24
 1688               	.LSM172:
 1689 01f6 8090 0000 		lds r8,zombie+8
 1690 01fa 9090 0000 		lds r9,(zombie+8)+1
 1691 01fe FF24      		clr r15
 1692 0200 00E0      		ldi r16,lo8(0)
 1693 0202 10E0      		ldi r17,hi8(0)
 1694 0204 C801      		movw r24,r16
 1695 0206 B701      		movw r22,r14
 1696 0208 0E94 0000 		call __floatunsisf
 1697 020c F401      		movw r30,r8
 1698 020e 6083      		st Z,r22
 1699 0210 7183      		std Z+1,r23
 1700 0212 8283      		std Z+2,r24
 1701 0214 9383      		std Z+3,r25
 1702               	.LSM173:
 1703 0216 BB24      		clr r11
 1704 0218 CC24      		clr r12
 1705 021a DD24      		clr r13
 1706 021c C601      		movw r24,r12
 1707 021e B501      		movw r22,r10
 1708 0220 0E94 0000 		call __floatunsisf
 1709 0224 F401      		movw r30,r8
 1710 0226 6483      		std Z+4,r22
 1711 0228 7583      		std Z+5,r23
 1712 022a 8683      		std Z+6,r24
 1713 022c 9783      		std Z+7,r25
 1714               	.LSM174:
 1715 022e 6091 0000 		lds r22,screen_x
 1716 0232 7091 0000 		lds r23,(screen_x)+1
 1717 0236 81E0      		ldi r24,lo8(1)
 1718 0238 90E0      		ldi r25,hi8(1)
 1719 023a 0E94 0000 		call randInRange
 1720 023e E82E      		mov r14,r24
 1721               	.LSM175:
 1722 0240 89E0      		ldi r24,lo8(9)
 1723 0242 90E0      		ldi r25,hi8(9)
 1724 0244 B301      		movw r22,r6
 1725 0246 0E94 0000 		call randInRange
 1726 024a A82E      		mov r10,r24
 1727               	.LSM176:
 1728 024c 8090 0000 		lds r8,zombie+10
 1729 0250 9090 0000 		lds r9,(zombie+10)+1
 1730 0254 FF24      		clr r15
 1731 0256 00E0      		ldi r16,lo8(0)
 1732 0258 10E0      		ldi r17,hi8(0)
 1733 025a C801      		movw r24,r16
 1734 025c B701      		movw r22,r14
 1735 025e 0E94 0000 		call __floatunsisf
 1736 0262 F401      		movw r30,r8
 1737 0264 6083      		st Z,r22
 1738 0266 7183      		std Z+1,r23
 1739 0268 8283      		std Z+2,r24
 1740 026a 9383      		std Z+3,r25
 1741               	.LSM177:
 1742 026c BB24      		clr r11
 1743 026e CC24      		clr r12
 1744 0270 DD24      		clr r13
 1745 0272 C601      		movw r24,r12
 1746 0274 B501      		movw r22,r10
 1747 0276 0E94 0000 		call __floatunsisf
 1748 027a F401      		movw r30,r8
 1749 027c 6483      		std Z+4,r22
 1750 027e 7583      		std Z+5,r23
 1751 0280 8683      		std Z+6,r24
 1752 0282 9783      		std Z+7,r25
 1753               	.LBE80:
 1754               	.LBB81:
 1755               	.LSM178:
 1756 0284 6091 0000 		lds r22,screen_x
 1757 0288 7091 0000 		lds r23,(screen_x)+1
 1758 028c 81E0      		ldi r24,lo8(1)
 1759 028e 90E0      		ldi r25,hi8(1)
 1760 0290 0E94 0000 		call randInRange
 1761 0294 A82E      		mov r10,r24
 1762               	.LSM179:
 1763 0296 8FE0      		ldi r24,lo8(15)
 1764 0298 90E0      		ldi r25,hi8(15)
 1765 029a 280E      		add r2,r24
 1766 029c 391E      		adc r3,r25
 1767 029e 6091 0000 		lds r22,screen_y
 1768 02a2 7091 0000 		lds r23,(screen_y)+1
 1769 02a6 C101      		movw r24,r2
 1770 02a8 0E94 0000 		call randInRange
 1771 02ac E82E      		mov r14,r24
 1772               	.LSM180:
 1773 02ae 8090 0000 		lds r8,zombie+12
 1774 02b2 9090 0000 		lds r9,(zombie+12)+1
 1775 02b6 BB24      		clr r11
 1776 02b8 CC24      		clr r12
 1777 02ba DD24      		clr r13
 1778 02bc C601      		movw r24,r12
 1779 02be B501      		movw r22,r10
 1780 02c0 0E94 0000 		call __floatunsisf
 1781 02c4 F401      		movw r30,r8
 1782 02c6 6083      		st Z,r22
 1783 02c8 7183      		std Z+1,r23
 1784 02ca 8283      		std Z+2,r24
 1785 02cc 9383      		std Z+3,r25
 1786               	.LSM181:
 1787 02ce FF24      		clr r15
 1788 02d0 00E0      		ldi r16,lo8(0)
 1789 02d2 10E0      		ldi r17,hi8(0)
 1790 02d4 C801      		movw r24,r16
 1791 02d6 B701      		movw r22,r14
 1792 02d8 0E94 0000 		call __floatunsisf
 1793 02dc F401      		movw r30,r8
 1794 02de 6483      		std Z+4,r22
 1795 02e0 7583      		std Z+5,r23
 1796 02e2 8683      		std Z+6,r24
 1797 02e4 9783      		std Z+7,r25
 1798               	.LSM182:
 1799 02e6 6091 0000 		lds r22,screen_x
 1800 02ea 7091 0000 		lds r23,(screen_x)+1
 1801 02ee 81E0      		ldi r24,lo8(1)
 1802 02f0 90E0      		ldi r25,hi8(1)
 1803 02f2 0E94 0000 		call randInRange
 1804 02f6 E82E      		mov r14,r24
 1805               	.LSM183:
 1806 02f8 6091 0000 		lds r22,screen_y
 1807 02fc 7091 0000 		lds r23,(screen_y)+1
 1808 0300 C101      		movw r24,r2
 1809 0302 0E94 0000 		call randInRange
 1810 0306 A82E      		mov r10,r24
 1811               	.LSM184:
 1812 0308 8090 0000 		lds r8,zombie+14
 1813 030c 9090 0000 		lds r9,(zombie+14)+1
 1814 0310 FF24      		clr r15
 1815 0312 00E0      		ldi r16,lo8(0)
 1816 0314 10E0      		ldi r17,hi8(0)
 1817 0316 C801      		movw r24,r16
 1818 0318 B701      		movw r22,r14
 1819 031a 0E94 0000 		call __floatunsisf
 1820 031e F401      		movw r30,r8
 1821 0320 6083      		st Z,r22
 1822 0322 7183      		std Z+1,r23
 1823 0324 8283      		std Z+2,r24
 1824 0326 9383      		std Z+3,r25
 1825               	.LSM185:
 1826 0328 BB24      		clr r11
 1827 032a CC24      		clr r12
 1828 032c DD24      		clr r13
 1829 032e C601      		movw r24,r12
 1830 0330 B501      		movw r22,r10
 1831 0332 0E94 0000 		call __floatunsisf
 1832 0336 F401      		movw r30,r8
 1833 0338 6483      		std Z+4,r22
 1834 033a 7583      		std Z+5,r23
 1835 033c 8683      		std Z+6,r24
 1836 033e 9783      		std Z+7,r25
 1837 0340 C0E0      		ldi r28,lo8(0)
 1838 0342 D0E0      		ldi r29,hi8(0)
 1839               	.LBE81:
 1840               	.LBB82:
 1841               	.LSM186:
 1842 0344 11E0      		ldi r17,lo8(1)
 1843               	.L84:
 1844               	.LSM187:
 1845 0346 80E0      		ldi r24,lo8(0)
 1846 0348 90E0      		ldi r25,hi8(0)
 1847 034a 63E0      		ldi r22,lo8(3)
 1848 034c 70E0      		ldi r23,hi8(3)
 1849 034e 0E94 0000 		call randInRange
 1850 0352 FE01      		movw r30,r28
 1851 0354 E050      		subi r30,lo8(-(zDirection))
 1852 0356 F040      		sbci r31,hi8(-(zDirection))
 1853 0358 9183      		std Z+1,r25
 1854 035a 8083      		st Z,r24
 1855               	.LSM188:
 1856 035c FE01      		movw r30,r28
 1857 035e E050      		subi r30,lo8(-(zombie))
 1858 0360 F040      		sbci r31,hi8(-(zombie))
 1859 0362 0190      		ld __tmp_reg__,Z+
 1860 0364 F081      		ld r31,Z
 1861 0366 E02D      		mov r30,__tmp_reg__
 1862 0368 1287      		std Z+10,r17
 1863 036a 2296      		adiw r28,2
 1864               	.LSM189:
 1865 036c C031      		cpi r28,16
 1866 036e D105      		cpc r29,__zero_reg__
 1867 0370 01F4      		brne .L84
 1868               	/* epilogue start */
 1869               	.LBE82:
 1870               	.LSM190:
 1871 0372 DF91      		pop r29
 1872 0374 CF91      		pop r28
 1873 0376 1F91      		pop r17
 1874 0378 0F91      		pop r16
 1875 037a FF90      		pop r15
 1876 037c EF90      		pop r14
 1877 037e DF90      		pop r13
 1878 0380 CF90      		pop r12
 1879 0382 BF90      		pop r11
 1880 0384 AF90      		pop r10
 1881 0386 9F90      		pop r9
 1882 0388 8F90      		pop r8
 1883 038a 7F90      		pop r7
 1884 038c 6F90      		pop r6
 1885 038e 5F90      		pop r5
 1886 0390 4F90      		pop r4
 1887 0392 3F90      		pop r3
 1888 0394 2F90      		pop r2
 1889 0396 0895      		ret
 1890               	.LFE20:
 1892               		.section	.text.zombiesForward,"ax",@progbits
 1893               	.global	zombiesForward
 1895               	zombiesForward:
 1896               	.LFB18:
 1897               	.LSM191:
 1898 0000 2F92      		push r2
 1899 0002 3F92      		push r3
 1900 0004 4F92      		push r4
 1901 0006 5F92      		push r5
 1902 0008 6F92      		push r6
 1903 000a 7F92      		push r7
 1904 000c 8F92      		push r8
 1905 000e 9F92      		push r9
 1906 0010 AF92      		push r10
 1907 0012 BF92      		push r11
 1908 0014 CF92      		push r12
 1909 0016 DF92      		push r13
 1910 0018 EF92      		push r14
 1911 001a FF92      		push r15
 1912 001c 0F93      		push r16
 1913 001e 1F93      		push r17
 1914 0020 CF93      		push r28
 1915 0022 DF93      		push r29
 1916               	/* prologue: function */
 1917               	/* frame size = 0 */
 1918               	.LSM192:
 1919 0024 A0E0      		ldi r26,lo8(zombie)
 1920 0026 2A2E      		mov r2,r26
 1921 0028 A0E0      		ldi r26,hi8(zombie)
 1922 002a 3A2E      		mov r3,r26
 1923 002c F0E0      		ldi r31,lo8(zDirection)
 1924 002e 6F2E      		mov r6,r31
 1925 0030 F0E0      		ldi r31,hi8(zDirection)
 1926 0032 7F2E      		mov r7,r31
 1927 0034 4424      		clr r4
 1928 0036 5524      		clr r5
 1929               	.LVL91:
 1930 0038 CC24      		clr r12
 1931 003a DD24      		clr r13
 1932               	.LVL92:
 1933               	.LVL93:
 1934               	.L100:
 1935               	.LBB83:
 1936               	.LSM193:
 1937 003c 81E0      		ldi r24,lo8(1)
 1938 003e 90E0      		ldi r25,hi8(1)
 1939 0040 64E6      		ldi r22,lo8(100)
 1940 0042 70E0      		ldi r23,hi8(100)
 1941 0044 0E94 0000 		call randInRange
 1942               	.LSM194:
 1943 0048 8630      		cpi r24,6
 1944 004a 9105      		cpc r25,__zero_reg__
 1945               	.LVL94:
 1946 004c 04F4      		brge .L88
 1947               	.LSM195:
 1948 004e F301      		movw r30,r6
 1949 0050 8081      		ld r24,Z
 1950 0052 9181      		ldd r25,Z+1
 1951               	.LVL95:
 1952 0054 0197      		sbiw r24,1
 1953 0056 9183      		std Z+1,r25
 1954 0058 8083      		st Z,r24
 1955               	.LSM196:
 1956 005a 97FF      		sbrs r25,7
 1957 005c 00C0      		rjmp .L89
 1958               	.LSM197:
 1959 005e 83E0      		ldi r24,lo8(3)
 1960 0060 90E0      		ldi r25,hi8(3)
 1961 0062 00C0      		rjmp .L105
 1962               	.LVL96:
 1963               	.L88:
 1964               	.LSM198:
 1965 0064 8036      		cpi r24,96
 1966 0066 9105      		cpc r25,__zero_reg__
 1967 0068 04F0      		brlt .L89
 1968               	.LSM199:
 1969 006a F301      		movw r30,r6
 1970 006c 8081      		ld r24,Z
 1971 006e 9181      		ldd r25,Z+1
 1972               	.LVL97:
 1973 0070 0196      		adiw r24,1
 1974 0072 64E0      		ldi r22,lo8(4)
 1975 0074 70E0      		ldi r23,hi8(4)
 1976 0076 0E94 0000 		call __divmodhi4
 1977               	.L105:
 1978 007a 9183      		std Z+1,r25
 1979 007c 8083      		st Z,r24
 1980               	.LVL98:
 1981               	.L89:
 1982               	.LSM200:
 1983 007e F101      		movw r30,r2
 1984 0080 A080      		ld r10,Z
 1985 0082 B180      		ldd r11,Z+1
 1986 0084 C501      		movw r24,r10
 1987               	.LVL99:
 1988 0086 0E94 0000 		call isInPit
 1989 008a 892B      		or r24,r25
 1990 008c 01F0      		breq .L90
 1991               	.LSM201:
 1992 008e 0091 0000 		lds r16,pitTop
 1993 0092 1091 0000 		lds r17,(pitTop)+1
 1994               	.LVL100:
 1995 0096 0E5F      		subi r16,lo8(-(2))
 1996 0098 1F4F      		sbci r17,hi8(-(2))
 1997               	.LSM202:
 1998 009a 2091 0000 		lds r18,pitBottom
 1999 009e 3091 0000 		lds r19,(pitBottom)+1
 2000               	.LVL101:
 2001 00a2 2450      		subi r18,lo8(-(-4))
 2002 00a4 3040      		sbci r19,hi8(-(-4))
 2003               	.LSM203:
 2004 00a6 8090 0000 		lds r8,pitLeft
 2005 00aa 9090 0000 		lds r9,(pitLeft)+1
 2006 00ae 82E0      		ldi r24,lo8(2)
 2007 00b0 90E0      		ldi r25,hi8(2)
 2008 00b2 880E      		add r8,r24
 2009 00b4 991E      		adc r9,r25
 2010               	.LSM204:
 2011 00b6 C091 0000 		lds r28,pitRight
 2012 00ba D091 0000 		lds r29,(pitRight)+1
 2013 00be 2497      		sbiw r28,4
 2014 00c0 00C0      		rjmp .L91
 2015               	.LVL102:
 2016               	.L90:
 2017               	.LSM205:
 2018 00c2 2091 0000 		lds r18,screen_y
 2019 00c6 3091 0000 		lds r19,(screen_y)+1
 2020               	.LVL103:
 2021 00ca 2150      		subi r18,lo8(-(-1))
 2022 00cc 3040      		sbci r19,hi8(-(-1))
 2023               	.LSM206:
 2024 00ce C091 0000 		lds r28,screen_x
 2025 00d2 D091 0000 		lds r29,(screen_x)+1
 2026 00d6 2197      		sbiw r28,1
 2027 00d8 E2E0      		ldi r30,lo8(2)
 2028 00da 8E2E      		mov r8,r30
 2029 00dc 912C      		mov r9,__zero_reg__
 2030 00de 0AE0      		ldi r16,lo8(10)
 2031 00e0 10E0      		ldi r17,hi8(10)
 2032               	.LVL104:
 2033               	.L91:
 2034               	.LSM207:
 2035 00e2 F301      		movw r30,r6
 2036 00e4 E080      		ld r14,Z
 2037 00e6 F180      		ldd r15,Z+1
 2038 00e8 E114      		cp r14,__zero_reg__
 2039 00ea F104      		cpc r15,__zero_reg__
 2040 00ec 01F4      		brne .L92
 2041               	.LSM208:
 2042 00ee B901      		movw r22,r18
 2043 00f0 8827      		clr r24
 2044 00f2 77FD      		sbrc r23,7
 2045 00f4 8095      		com r24
 2046 00f6 982F      		mov r25,r24
 2047               	.LVL105:
 2048 00f8 0E94 0000 		call __floatsisf
 2049               	.LVL106:
 2050 00fc 9B01      		movw r18,r22
 2051 00fe AC01      		movw r20,r24
 2052 0100 F501      		movw r30,r10
 2053 0102 6481      		ldd r22,Z+4
 2054 0104 7581      		ldd r23,Z+5
 2055 0106 8681      		ldd r24,Z+6
 2056 0108 9781      		ldd r25,Z+7
 2057 010a 0E94 0000 		call __gtsf2
 2058 010e 1816      		cp __zero_reg__,r24
 2059 0110 04F4      		brge .+2
 2060 0112 00C0      		rjmp .L93
 2061 0114 4424      		clr r4
 2062 0116 5524      		clr r5
 2063 0118 71E0      		ldi r23,lo8(1)
 2064 011a C72E      		mov r12,r23
 2065 011c D12C      		mov r13,__zero_reg__
 2066               	.LVL107:
 2067               	.L92:
 2068               	.LSM209:
 2069 011e F1E0      		ldi r31,lo8(1)
 2070 0120 EF16      		cp r14,r31
 2071 0122 F104      		cpc r15,__zero_reg__
 2072 0124 01F4      		brne .L94
 2073               	.LSM210:
 2074 0126 BE01      		movw r22,r28
 2075 0128 8827      		clr r24
 2076 012a 77FD      		sbrc r23,7
 2077 012c 8095      		com r24
 2078 012e 982F      		mov r25,r24
 2079               	.LVL108:
 2080 0130 0E94 0000 		call __floatsisf
 2081               	.LVL109:
 2082 0134 9B01      		movw r18,r22
 2083 0136 AC01      		movw r20,r24
 2084 0138 F501      		movw r30,r10
 2085 013a 6081      		ld r22,Z
 2086 013c 7181      		ldd r23,Z+1
 2087 013e 8281      		ldd r24,Z+2
 2088 0140 9381      		ldd r25,Z+3
 2089 0142 0E94 0000 		call __gtsf2
 2090 0146 1816      		cp __zero_reg__,r24
 2091 0148 04F4      		brge .+2
 2092 014a 00C0      		rjmp .L95
 2093 014c 00C0      		rjmp .L107
 2094               	.LVL110:
 2095               	.L94:
 2096               	.LSM211:
 2097 014e F2E0      		ldi r31,lo8(2)
 2098 0150 EF16      		cp r14,r31
 2099 0152 F104      		cpc r15,__zero_reg__
 2100 0154 01F4      		brne .L97
 2101               	.LSM212:
 2102 0156 B801      		movw r22,r16
 2103 0158 8827      		clr r24
 2104 015a 77FD      		sbrc r23,7
 2105 015c 8095      		com r24
 2106 015e 982F      		mov r25,r24
 2107               	.LVL111:
 2108 0160 0E94 0000 		call __floatsisf
 2109               	.LVL112:
 2110 0164 9B01      		movw r18,r22
 2111 0166 AC01      		movw r20,r24
 2112 0168 F501      		movw r30,r10
 2113 016a 6481      		ldd r22,Z+4
 2114 016c 7581      		ldd r23,Z+5
 2115 016e 8681      		ldd r24,Z+6
 2116 0170 9781      		ldd r25,Z+7
 2117 0172 0E94 0000 		call __ltsf2
 2118 0176 87FD      		sbrc r24,7
 2119 0178 00C0      		rjmp .L93
 2120 017a CC24      		clr r12
 2121 017c CA94      		dec r12
 2122 017e DC2C      		mov r13,r12
 2123 0180 00C0      		rjmp .L98
 2124               	.LVL113:
 2125               	.L107:
 2126 0182 61E0      		ldi r22,lo8(1)
 2127 0184 462E      		mov r4,r22
 2128 0186 512C      		mov r5,__zero_reg__
 2129 0188 CC24      		clr r12
 2130 018a DD24      		clr r13
 2131               	.LVL114:
 2132               	.L97:
 2133               	.LSM213:
 2134 018c F3E0      		ldi r31,lo8(3)
 2135 018e EF16      		cp r14,r31
 2136 0190 F104      		cpc r15,__zero_reg__
 2137 0192 01F4      		brne .L99
 2138               	.LSM214:
 2139 0194 B401      		movw r22,r8
 2140 0196 8827      		clr r24
 2141 0198 77FD      		sbrc r23,7
 2142 019a 8095      		com r24
 2143 019c 982F      		mov r25,r24
 2144               	.LVL115:
 2145 019e 0E94 0000 		call __floatsisf
 2146               	.LVL116:
 2147 01a2 9B01      		movw r18,r22
 2148 01a4 AC01      		movw r20,r24
 2149 01a6 F501      		movw r30,r10
 2150 01a8 6081      		ld r22,Z
 2151 01aa 7181      		ldd r23,Z+1
 2152 01ac 8281      		ldd r24,Z+2
 2153 01ae 9381      		ldd r25,Z+3
 2154 01b0 0E94 0000 		call __ltsf2
 2155 01b4 87FD      		sbrc r24,7
 2156 01b6 00C0      		rjmp .L93
 2157 01b8 4424      		clr r4
 2158 01ba 4A94      		dec r4
 2159 01bc 542C      		mov r5,r4
 2160 01be 00C0      		rjmp .L106
 2161               	.LVL117:
 2162               	.L93:
 2163 01c0 4424      		clr r4
 2164 01c2 5524      		clr r5
 2165               	.L106:
 2166 01c4 CC24      		clr r12
 2167 01c6 DD24      		clr r13
 2168               	.LVL118:
 2169               	.L99:
 2170               	.LSM215:
 2171 01c8 B201      		movw r22,r4
 2172 01ca 8827      		clr r24
 2173 01cc 77FD      		sbrc r23,7
 2174 01ce 8095      		com r24
 2175 01d0 982F      		mov r25,r24
 2176               	.LVL119:
 2177 01d2 0E94 0000 		call __floatsisf
 2178               	.LVL120:
 2179 01d6 9B01      		movw r18,r22
 2180 01d8 AC01      		movw r20,r24
 2181 01da F501      		movw r30,r10
 2182 01dc 6081      		ld r22,Z
 2183 01de 7181      		ldd r23,Z+1
 2184 01e0 8281      		ldd r24,Z+2
 2185 01e2 9381      		ldd r25,Z+3
 2186 01e4 0E94 0000 		call __addsf3
 2187 01e8 F501      		movw r30,r10
 2188 01ea 6083      		st Z,r22
 2189 01ec 7183      		std Z+1,r23
 2190 01ee 8283      		std Z+2,r24
 2191 01f0 9383      		std Z+3,r25
 2192               	.LSM216:
 2193 01f2 F101      		movw r30,r2
 2194 01f4 0191      		ld r16,Z+
 2195 01f6 1191      		ld r17,Z+
 2196               	.LVL121:
 2197 01f8 1F01      		movw r2,r30
 2198 01fa B601      		movw r22,r12
 2199 01fc 8827      		clr r24
 2200 01fe 77FD      		sbrc r23,7
 2201 0200 8095      		com r24
 2202 0202 982F      		mov r25,r24
 2203               	.LVL122:
 2204 0204 0E94 0000 		call __floatsisf
 2205               	.LVL123:
 2206 0208 9B01      		movw r18,r22
 2207 020a AC01      		movw r20,r24
 2208 020c F801      		movw r30,r16
 2209 020e 6481      		ldd r22,Z+4
 2210 0210 7581      		ldd r23,Z+5
 2211 0212 8681      		ldd r24,Z+6
 2212 0214 9781      		ldd r25,Z+7
 2213 0216 0E94 0000 		call __addsf3
 2214 021a F801      		movw r30,r16
 2215 021c 6483      		std Z+4,r22
 2216 021e 7583      		std Z+5,r23
 2217 0220 8683      		std Z+6,r24
 2218 0222 9783      		std Z+7,r25
 2219 0224 82E0      		ldi r24,lo8(2)
 2220 0226 90E0      		ldi r25,hi8(2)
 2221 0228 680E      		add r6,r24
 2222 022a 791E      		adc r7,r25
 2223               	.LSM217:
 2224 022c 90E0      		ldi r25,lo8(zombie+16)
 2225 022e 2916      		cp r2,r25
 2226 0230 90E0      		ldi r25,hi8(zombie+16)
 2227 0232 3906      		cpc r3,r25
 2228 0234 01F0      		breq .+2
 2229 0236 00C0      		rjmp .L100
 2230 0238 00C0      		rjmp .L108
 2231               	.LVL124:
 2232               	.L95:
 2233               	.LSM218:
 2234 023a CC24      		clr r12
 2235 023c DD24      		clr r13
 2236               	.LVL125:
 2237               	.L98:
 2238 023e 4424      		clr r4
 2239 0240 5524      		clr r5
 2240 0242 00C0      		rjmp .L99
 2241               	.LVL126:
 2242               	.L108:
 2243               	/* epilogue start */
 2244               	.LBE83:
 2245 0244 DF91      		pop r29
 2246 0246 CF91      		pop r28
 2247               	.LVL127:
 2248 0248 1F91      		pop r17
 2249 024a 0F91      		pop r16
 2250 024c FF90      		pop r15
 2251 024e EF90      		pop r14
 2252 0250 DF90      		pop r13
 2253 0252 CF90      		pop r12
 2254 0254 BF90      		pop r11
 2255 0256 AF90      		pop r10
 2256 0258 9F90      		pop r9
 2257 025a 8F90      		pop r8
 2258               	.LVL128:
 2259 025c 7F90      		pop r7
 2260 025e 6F90      		pop r6
 2261 0260 5F90      		pop r5
 2262 0262 4F90      		pop r4
 2263 0264 3F90      		pop r3
 2264 0266 2F90      		pop r2
 2265 0268 0895      		ret
 2266               	.LFE18:
 2268               		.section	.text.__vector_23,"ax",@progbits
 2269               	.global	__vector_23
 2271               	__vector_23:
 2272               	.LFB16:
 2273               	.LSM219:
 2274 0000 1F92      		push __zero_reg__
 2275 0002 0F92      		push r0
 2276 0004 0FB6      		in r0,__SREG__
 2277 0006 0F92      		push r0
 2278 0008 1124      		clr __zero_reg__
 2279 000a 2F93      		push r18
 2280 000c 3F93      		push r19
 2281 000e 4F93      		push r20
 2282 0010 5F93      		push r21
 2283 0012 6F93      		push r22
 2284 0014 7F93      		push r23
 2285 0016 8F93      		push r24
 2286 0018 9F93      		push r25
 2287 001a AF93      		push r26
 2288 001c BF93      		push r27
 2289 001e EF93      		push r30
 2290 0020 FF93      		push r31
 2291               	/* prologue: Signal */
 2292               	/* frame size = 0 */
 2293               	.LSM220:
 2294 0022 A89A      		sbi 53-32,0
 2295               	.LSM221:
 2296 0024 8091 0000 		lds r24,clockCounter
 2297 0028 9091 0000 		lds r25,(clockCounter)+1
 2298 002c 0196      		adiw r24,1
 2299 002e 9093 0000 		sts (clockCounter)+1,r25
 2300 0032 8093 0000 		sts clockCounter,r24
 2301               	.LSM222:
 2302 0036 8091 0000 		lds r24,clockCounter
 2303 003a 9091 0000 		lds r25,(clockCounter)+1
 2304 003e 0597      		sbiw r24,5
 2305 0040 04F0      		brlt .L112
 2306 0042 8091 0000 		lds r24,GAMEON
 2307 0046 9091 0000 		lds r25,(GAMEON)+1
 2308 004a 892B      		or r24,r25
 2309 004c 01F0      		breq .L112
 2310               	.LSM223:
 2311 004e 1092 0000 		sts (clockCounter)+1,__zero_reg__
 2312 0052 1092 0000 		sts clockCounter,__zero_reg__
 2313               	.LSM224:
 2314 0056 8091 0000 		lds r24,stepsCounter
 2315 005a 9091 0000 		lds r25,(stepsCounter)+1
 2316 005e 0196      		adiw r24,1
 2317 0060 9093 0000 		sts (stepsCounter)+1,r25
 2318 0064 8093 0000 		sts stepsCounter,r24
 2319               	.LSM225:
 2320 0068 8091 0000 		lds r24,stepsCounter
 2321 006c 9091 0000 		lds r25,(stepsCounter)+1
 2322 0070 0A97      		sbiw r24,10
 2323 0072 04F0      		brlt .L111
 2324               	.LSM226:
 2325 0074 1092 0000 		sts (stepsCounter)+1,__zero_reg__
 2326 0078 1092 0000 		sts stepsCounter,__zero_reg__
 2327               	.LSM227:
 2328 007c 0E94 0000 		call zombiesForward
 2329               	.L111:
 2330               	.LSM228:
 2331 0080 0E94 0000 		call heroForward
 2332               	.L112:
 2333               	/* epilogue start */
 2334               	.LSM229:
 2335 0084 FF91      		pop r31
 2336 0086 EF91      		pop r30
 2337 0088 BF91      		pop r27
 2338 008a AF91      		pop r26
 2339 008c 9F91      		pop r25
 2340 008e 8F91      		pop r24
 2341 0090 7F91      		pop r23
 2342 0092 6F91      		pop r22
 2343 0094 5F91      		pop r21
 2344 0096 4F91      		pop r20
 2345 0098 3F91      		pop r19
 2346 009a 2F91      		pop r18
 2347 009c 0F90      		pop r0
 2348 009e 0FBE      		out __SREG__,r0
 2349 00a0 0F90      		pop r0
 2350 00a2 1F90      		pop __zero_reg__
 2351 00a4 1895      		reti
 2352               	.LFE16:
 2354               		.data
 2355               	.LC3:
 2356 0018 5A6F 6D62 		.string	"ZombieDash v1.0"
 2356      6965 4461 
 2356      7368 2076 
 2356      312E 3000 
 2357               	.LC4:
 2358 0028 4C61 6368 		.string	"Lachlan Robinson"
 2358      6C61 6E20 
 2358      526F 6269 
 2358      6E73 6F6E 
 2358      00
 2359               	.LC5:
 2360 0039 6E38 3834 		.string	"n8845409"
 2360      3534 3039 
 2360      00
 2361               		.section	.text.setupGame,"ax",@progbits
 2362               	.global	setupGame
 2364               	setupGame:
 2365               	.LFB8:
 2366               	.LSM230:
 2367               	/* prologue: function */
 2368               	/* frame size = 0 */
 2369               	.LSM231:
 2370 0000 84B1      		in r24,36-32
 2371 0002 8C60      		ori r24,lo8(12)
 2372 0004 84B9      		out 36-32,r24
 2373               	.LSM232:
 2374 0006 569A      		sbi 42-32,6
 2375               	.LSM233:
 2376 0008 8BB1      		in r24,43-32
 2377 000a 8BB9      		out 43-32,r24
 2378               	.LSM234:
 2379 000c 289A      		sbi 37-32,0
 2380               	.LSM235:
 2381 000e E1E6      		ldi r30,lo8(97)
 2382 0010 F0E0      		ldi r31,hi8(97)
 2383 0012 80E8      		ldi r24,lo8(-128)
 2384 0014 8083      		st Z,r24
 2385 0016 1082      		st Z,__zero_reg__
 2386               	.LSM236:
 2387 0018 8FE3      		ldi r24,lo8(63)
 2388 001a 0E94 0000 		call LCDInitialise
 2389               	.LSM237:
 2390 001e 0E94 0000 		call clear
 2391               	.LSM238:
 2392 0022 0E94 0000 		call PinChangeInit
 2393               	.LSM239:
 2394 0026 0E94 0000 		call TimerInit
 2395               	.LSM240:
 2396 002a 0E94 0000 		call clear
 2397               	.LSM241:
 2398 002e 80E0      		ldi r24,lo8(.LC3)
 2399 0030 90E0      		ldi r25,hi8(.LC3)
 2400 0032 64E0      		ldi r22,lo8(4)
 2401 0034 40E0      		ldi r20,lo8(0)
 2402 0036 0E94 0000 		call draw_string
 2403               	.LSM242:
 2404 003a 80E0      		ldi r24,lo8(.LC4)
 2405 003c 90E0      		ldi r25,hi8(.LC4)
 2406 003e 62E0      		ldi r22,lo8(2)
 2407 0040 49E0      		ldi r20,lo8(9)
 2408 0042 0E94 0000 		call draw_string
 2409               	.LSM243:
 2410 0046 80E0      		ldi r24,lo8(.LC5)
 2411 0048 90E0      		ldi r25,hi8(.LC5)
 2412 004a 66E1      		ldi r22,lo8(22)
 2413 004c 4CE1      		ldi r20,lo8(28)
 2414 004e 0E94 0000 		call draw_string
 2415               	.LSM244:
 2416 0052 0E94 0000 		call refresh
 2417               	.LSM245:
 2418 0056 0E94 0000 		call seedWithButtonPress
 2419               	.LSM246:
 2420 005a 0E94 0000 		call buttonCheck
 2421               	.LSM247:
 2422 005e 0E94 0000 		call CountDown
 2423               	.LSM248:
 2424 0062 83E0      		ldi r24,lo8(3)
 2425 0064 90E0      		ldi r25,hi8(3)
 2426 0066 9093 0000 		sts (Lives)+1,r25
 2427 006a 8093 0000 		sts Lives,r24
 2428               	/* epilogue start */
 2429               	.LSM249:
 2430 006e 0895      		ret
 2431               	.LFE8:
 2433               		.data
 2434               	.LC6:
 2435 0042 546F 7563 		.string	"Touched A Zombie!"
 2435      6865 6420 
 2435      4120 5A6F 
 2435      6D62 6965 
 2435      2100 
 2436               	.LC7:
 2437 0054 4761 6D65 		.string	"Game OVER!"
 2437      204F 5645 
 2437      5221 00
 2438               		.section	.text.collision,"ax",@progbits
 2439               	.global	collision
 2441               	collision:
 2442               	.LFB22:
 2443               	.LSM250:
 2444 0000 2F92      		push r2
 2445 0002 3F92      		push r3
 2446 0004 4F92      		push r4
 2447 0006 5F92      		push r5
 2448 0008 6F92      		push r6
 2449 000a 7F92      		push r7
 2450 000c 8F92      		push r8
 2451 000e 9F92      		push r9
 2452 0010 AF92      		push r10
 2453 0012 BF92      		push r11
 2454 0014 CF92      		push r12
 2455 0016 DF92      		push r13
 2456 0018 EF92      		push r14
 2457 001a FF92      		push r15
 2458 001c 0F93      		push r16
 2459 001e 1F93      		push r17
 2460 0020 CF93      		push r28
 2461 0022 DF93      		push r29
 2462               	/* prologue: function */
 2463               	/* frame size = 0 */
 2464               	.LSM251:
 2465 0024 8091 0000 		lds r24,screen_x
 2466 0028 9091 0000 		lds r25,(screen_x)+1
 2467 002c 62E0      		ldi r22,lo8(2)
 2468 002e 70E0      		ldi r23,hi8(2)
 2469 0030 0E94 0000 		call __divmodhi4
 2470 0034 662E      		mov r6,r22
 2471               	.LSM252:
 2472 0036 8091 0000 		lds r24,screen_y
 2473 003a 9091 0000 		lds r25,(screen_y)+1
 2474 003e 62E0      		ldi r22,lo8(2)
 2475 0040 70E0      		ldi r23,hi8(2)
 2476 0042 0E94 0000 		call __divmodhi4
 2477 0046 262E      		mov r2,r22
 2478               	.LVL129:
 2479               	.LSM253:
 2480 0048 C090 0000 		lds r12,my_pointer
 2481 004c D090 0000 		lds r13,(my_pointer)+1
 2482 0050 D601      		movw r26,r12
 2483 0052 6D91      		ld r22,X+
 2484 0054 7D91      		ld r23,X+
 2485 0056 8D91      		ld r24,X+
 2486 0058 9C91      		ld r25,X
 2487 005a 0E94 0000 		call __fixunssfsi
 2488 005e 7B01      		movw r14,r22
 2489 0060 8C01      		movw r16,r24
 2490               	.LSM254:
 2491 0062 F601      		movw r30,r12
 2492 0064 6481      		ldd r22,Z+4
 2493 0066 7581      		ldd r23,Z+5
 2494 0068 8681      		ldd r24,Z+6
 2495 006a 9781      		ldd r25,Z+7
 2496 006c 0E94 0000 		call __fixunssfsi
 2497 0070 362E      		mov r3,r22
 2498               	.LVL130:
 2499               	.LSM255:
 2500 0072 C090 0000 		lds r12,sword
 2501 0076 D090 0000 		lds r13,(sword)+1
 2502 007a D601      		movw r26,r12
 2503 007c 6D91      		ld r22,X+
 2504 007e 7D91      		ld r23,X+
 2505 0080 8D91      		ld r24,X+
 2506 0082 9C91      		ld r25,X
 2507 0084 0E94 0000 		call __fixsfsi
 2508 0088 5B01      		movw r10,r22
 2509               	.LVL131:
 2510               	.LSM256:
 2511 008a F601      		movw r30,r12
 2512 008c 6481      		ldd r22,Z+4
 2513 008e 7581      		ldd r23,Z+5
 2514 0090 8681      		ldd r24,Z+6
 2515 0092 9781      		ldd r25,Z+7
 2516 0094 0E94 0000 		call __fixsfsi
 2517 0098 6B01      		movw r12,r22
 2518               	.LVL132:
 2519 009a 00E0      		ldi r16,lo8(zombie)
 2520 009c 10E0      		ldi r17,hi8(zombie)
 2521               	.LBB84:
 2522               	.LBB85:
 2523               	.LSM257:
 2524 009e FF24      		clr r15
 2525 00a0 432C      		mov r4,r3
 2526 00a2 5524      		clr r5
 2527               	.LBB86:
 2528               	.LBB87:
 2529               	.LBB88:
 2530               	.LBB89:
 2531               	.LSM258:
 2532 00a4 B0E9      		ldi r27,lo8(400)
 2533 00a6 8B2E      		mov r8,r27
 2534 00a8 B1E0      		ldi r27,hi8(400)
 2535 00aa 9B2E      		mov r9,r27
 2536               	.LBE89:
 2537               	.LBE88:
 2538               	.LBE87:
 2539               	.LBE86:
 2540               	.LSM259:
 2541 00ac F7EE      		ldi r31,lo8(-25)
 2542 00ae 6F0E      		add r6,r31
 2543               	.LVL133:
 2544               	.L124:
 2545               	.LSM260:
 2546 00b0 D801      		movw r26,r16
 2547 00b2 CD91      		ld r28,X+
 2548 00b4 DC91      		ld r29,X
 2549               	.LSM261:
 2550 00b6 6C81      		ldd r22,Y+4
 2551 00b8 7D81      		ldd r23,Y+5
 2552 00ba 8E81      		ldd r24,Y+6
 2553 00bc 9F81      		ldd r25,Y+7
 2554 00be 0E94 0000 		call __fixunssfsi
 2555 00c2 762E      		mov r7,r22
 2556               	.LSM262:
 2557 00c4 6881      		ld r22,Y
 2558 00c6 7981      		ldd r23,Y+1
 2559 00c8 8A81      		ldd r24,Y+2
 2560 00ca 9B81      		ldd r25,Y+3
 2561 00cc 0E94 0000 		call __fixunssfsi
 2562 00d0 70E0      		ldi r23,lo8(0)
 2563 00d2 8091 0000 		lds r24,width
 2564 00d6 E82F      		mov r30,r24
 2565 00d8 F0E0      		ldi r31,lo8(0)
 2566 00da DB01      		movw r26,r22
 2567 00dc AE1B      		sub r26,r30
 2568 00de BF0B      		sbc r27,r31
 2569 00e0 AA15      		cp r26,r10
 2570 00e2 BB05      		cpc r27,r11
 2571 00e4 04F4      		brge .L116
 2572 00e6 CB01      		movw r24,r22
 2573 00e8 8E0F      		add r24,r30
 2574 00ea 9F1F      		adc r25,r31
 2575 00ec A816      		cp r10,r24
 2576 00ee B906      		cpc r11,r25
 2577 00f0 04F4      		brge .L116
 2578 00f2 272D      		mov r18,r7
 2579 00f4 30E0      		ldi r19,lo8(0)
 2580 00f6 8091 0000 		lds r24,height
 2581 00fa 482F      		mov r20,r24
 2582 00fc 50E0      		ldi r21,lo8(0)
 2583 00fe C901      		movw r24,r18
 2584 0100 841B      		sub r24,r20
 2585 0102 950B      		sbc r25,r21
 2586 0104 8C15      		cp r24,r12
 2587 0106 9D05      		cpc r25,r13
 2588 0108 04F4      		brge .L116
 2589 010a 240F      		add r18,r20
 2590 010c 351F      		adc r19,r21
 2591 010e C216      		cp r12,r18
 2592 0110 D306      		cpc r13,r19
 2593 0112 04F4      		brge .L116
 2594 0114 8091 0000 		lds r24,gotSword
 2595 0118 9091 0000 		lds r25,(gotSword)+1
 2596 011c 892B      		or r24,r25
 2597 011e 01F0      		breq .L116
 2598 0120 8A85      		ldd r24,Y+10
 2599 0122 8130      		cpi r24,lo8(1)
 2600 0124 01F4      		brne .L116
 2601               	.LSM263:
 2602 0126 1A86      		std Y+10,__zero_reg__
 2603               	.LSM264:
 2604 0128 8091 0000 		lds r24,Score
 2605 012c 9091 0000 		lds r25,(Score)+1
 2606 0130 0196      		adiw r24,1
 2607 0132 9093 0000 		sts (Score)+1,r25
 2608 0136 8093 0000 		sts Score,r24
 2609               	.L116:
 2610               	.LSM265:
 2611 013a AE15      		cp r26,r14
 2612 013c BF05      		cpc r27,r15
 2613 013e 04F0      		brlt .+2
 2614 0140 00C0      		rjmp .L117
 2615 0142 6E0F      		add r22,r30
 2616 0144 7F1F      		adc r23,r31
 2617 0146 E616      		cp r14,r22
 2618 0148 F706      		cpc r15,r23
 2619 014a 04F0      		brlt .+2
 2620 014c 00C0      		rjmp .L117
 2621 014e 672D      		mov r22,r7
 2622 0150 70E0      		ldi r23,lo8(0)
 2623 0152 8091 0000 		lds r24,height
 2624 0156 282F      		mov r18,r24
 2625 0158 30E0      		ldi r19,lo8(0)
 2626 015a CB01      		movw r24,r22
 2627 015c 821B      		sub r24,r18
 2628 015e 930B      		sbc r25,r19
 2629 0160 8415      		cp r24,r4
 2630 0162 9505      		cpc r25,r5
 2631 0164 04F0      		brlt .+2
 2632 0166 00C0      		rjmp .L117
 2633 0168 620F      		add r22,r18
 2634 016a 731F      		adc r23,r19
 2635 016c 4616      		cp r4,r22
 2636 016e 5706      		cpc r5,r23
 2637 0170 04F0      		brlt .+2
 2638 0172 00C0      		rjmp .L117
 2639 0174 D801      		movw r26,r16
 2640 0176 ED91      		ld r30,X+
 2641 0178 FC91      		ld r31,X
 2642 017a 8285      		ldd r24,Z+10
 2643 017c 8130      		cpi r24,lo8(1)
 2644 017e 01F0      		breq .+2
 2645 0180 00C0      		rjmp .L117
 2646               	.LSM266:
 2647 0182 1092 0000 		sts (GAMEON)+1,__zero_reg__
 2648 0186 1092 0000 		sts GAMEON,__zero_reg__
 2649               	.LSM267:
 2650 018a 8091 0000 		lds r24,Lives
 2651 018e 9091 0000 		lds r25,(Lives)+1
 2652 0192 1816      		cp __zero_reg__,r24
 2653 0194 1906      		cpc __zero_reg__,r25
 2654 0196 04F4      		brge .L118
 2655 0198 88EB      		ldi r24,lo8(3000)
 2656 019a 9BE0      		ldi r25,hi8(3000)
 2657               	.LVL134:
 2658               	.L119:
 2659               	.LBB93:
 2660               	.LBB94:
 2661               	.LBB95:
 2662               	.LBB96:
 2663               	.LSM268:
 2664 019c F401      		movw r30,r8
 2665               	.LVL135:
 2666               	/* #APP */
 2667               	 ;  105 "c:/winavr-20100110/lib/gcc/../../avr/include/util/delay_basic.h" 1
 2668 019e 3197      		1: sbiw r30,1
 2669 01a0 01F4      		brne 1b
 2670               	 ;  0 "" 2
 2671               	/* #NOAPP */
 2672               	.LBE96:
 2673               	.LBE95:
 2674               	.LSM269:
 2675 01a2 0197      		sbiw r24,1
 2676               	.LSM270:
 2677 01a4 01F4      		brne .L119
 2678               	.LBE94:
 2679               	.LBE93:
 2680               	.LSM271:
 2681 01a6 0E94 0000 		call clear
 2682               	.LVL136:
 2683               	.LSM272:
 2684 01aa 80E0      		ldi r24,lo8(.LC6)
 2685 01ac 90E0      		ldi r25,hi8(.LC6)
 2686 01ae 60E0      		ldi r22,lo8(0)
 2687 01b0 422D      		mov r20,r2
 2688 01b2 0E94 0000 		call draw_string
 2689               	.LSM273:
 2690 01b6 0E94 0000 		call refresh
 2691 01ba 88E9      		ldi r24,lo8(15000)
 2692 01bc 9AE3      		ldi r25,hi8(15000)
 2693               	.LVL137:
 2694               	.L120:
 2695               	.LBB97:
 2696               	.LBB98:
 2697               	.LBB99:
 2698               	.LBB100:
 2699               	.LSM274:
 2700 01be F401      		movw r30,r8
 2701               	.LVL138:
 2702               	/* #APP */
 2703               	 ;  105 "c:/winavr-20100110/lib/gcc/../../avr/include/util/delay_basic.h" 1
 2704 01c0 3197      		1: sbiw r30,1
 2705 01c2 01F4      		brne 1b
 2706               	 ;  0 "" 2
 2707               	/* #NOAPP */
 2708               	.LBE100:
 2709               	.LBE99:
 2710               	.LSM275:
 2711 01c4 0197      		sbiw r24,1
 2712               	.LSM276:
 2713 01c6 01F4      		brne .L120
 2714               	.LBE98:
 2715               	.LBE97:
 2716               	.LSM277:
 2717 01c8 8091 0000 		lds r24,Lives
 2718 01cc 9091 0000 		lds r25,(Lives)+1
 2719               	.LVL139:
 2720 01d0 0197      		sbiw r24,1
 2721 01d2 9093 0000 		sts (Lives)+1,r25
 2722 01d6 8093 0000 		sts Lives,r24
 2723               	.LSM278:
 2724 01da 0E94 0000 		call setupHero
 2725               	.LVL140:
 2726               	.LSM279:
 2727 01de 0E94 0000 		call setupZombies
 2728 01e2 00C0      		rjmp .L121
 2729               	.L118:
 2730 01e4 88EB      		ldi r24,lo8(3000)
 2731 01e6 9BE0      		ldi r25,hi8(3000)
 2732               	.LVL141:
 2733               	.L122:
 2734               	.LBB101:
 2735               	.LBB92:
 2736               	.LBB91:
 2737               	.LBB90:
 2738               	.LSM280:
 2739 01e8 F401      		movw r30,r8
 2740               	.LVL142:
 2741               	/* #APP */
 2742               	 ;  105 "c:/winavr-20100110/lib/gcc/../../avr/include/util/delay_basic.h" 1
 2743 01ea 3197      		1: sbiw r30,1
 2744 01ec 01F4      		brne 1b
 2745               	 ;  0 "" 2
 2746               	/* #NOAPP */
 2747               	.LBE90:
 2748               	.LBE91:
 2749               	.LSM281:
 2750 01ee 0197      		sbiw r24,1
 2751               	.LSM282:
 2752 01f0 01F4      		brne .L122
 2753               	.LBE92:
 2754               	.LBE101:
 2755               	.LSM283:
 2756 01f2 0E94 0000 		call clear
 2757               	.LVL143:
 2758               	.LSM284:
 2759 01f6 80E0      		ldi r24,lo8(.LC7)
 2760 01f8 90E0      		ldi r25,hi8(.LC7)
 2761 01fa 662D      		mov r22,r6
 2762 01fc 422D      		mov r20,r2
 2763 01fe 0E94 0000 		call draw_string
 2764               	.LSM285:
 2765 0202 0E94 0000 		call refresh
 2766 0206 88E9      		ldi r24,lo8(15000)
 2767 0208 9AE3      		ldi r25,hi8(15000)
 2768               	.LVL144:
 2769               	.L123:
 2770               	.LBB102:
 2771               	.LBB103:
 2772               	.LBB104:
 2773               	.LBB105:
 2774               	.LSM286:
 2775 020a F401      		movw r30,r8
 2776               	.LVL145:
 2777               	/* #APP */
 2778               	 ;  105 "c:/winavr-20100110/lib/gcc/../../avr/include/util/delay_basic.h" 1
 2779 020c 3197      		1: sbiw r30,1
 2780 020e 01F4      		brne 1b
 2781               	 ;  0 "" 2
 2782               	/* #NOAPP */
 2783               	.LBE105:
 2784               	.LBE104:
 2785               	.LSM287:
 2786 0210 0197      		sbiw r24,1
 2787               	.LSM288:
 2788 0212 01F4      		brne .L123
 2789               	.LBE103:
 2790               	.LBE102:
 2791               	.LSM289:
 2792 0214 0E94 0000 		call setupGame
 2793               	.LVL146:
 2794               	.LSM290:
 2795 0218 0E94 0000 		call setupHero
 2796               	.LSM291:
 2797 021c 0E94 0000 		call setupZombies
 2798               	.LSM292:
 2799 0220 0E94 0000 		call setupPit
 2800               	.L121:
 2801               	.LSM293:
 2802 0224 E1E0      		ldi r30,lo8(1)
 2803 0226 F0E0      		ldi r31,hi8(1)
 2804 0228 F093 0000 		sts (GAMEON)+1,r31
 2805 022c E093 0000 		sts GAMEON,r30
 2806               	.L117:
 2807 0230 0E5F      		subi r16,lo8(-(2))
 2808 0232 1F4F      		sbci r17,hi8(-(2))
 2809               	.LBE85:
 2810               	.LSM294:
 2811 0234 F0E0      		ldi r31,hi8(zombie+16)
 2812 0236 0030      		cpi r16,lo8(zombie+16)
 2813 0238 1F07      		cpc r17,r31
 2814 023a 01F0      		breq .+2
 2815 023c 00C0      		rjmp .L124
 2816               	.LBE84:
 2817               	.LSM295:
 2818 023e 8091 0000 		lds r24,width
 2819 0242 282F      		mov r18,r24
 2820 0244 30E0      		ldi r19,lo8(0)
 2821 0246 C501      		movw r24,r10
 2822 0248 821B      		sub r24,r18
 2823 024a 930B      		sbc r25,r19
 2824 024c 8E15      		cp r24,r14
 2825 024e 9F05      		cpc r25,r15
 2826 0250 04F4      		brge .L126
 2827 0252 2A0D      		add r18,r10
 2828 0254 3B1D      		adc r19,r11
 2829 0256 E216      		cp r14,r18
 2830 0258 F306      		cpc r15,r19
 2831 025a 04F4      		brge .L126
 2832 025c 632D      		mov r22,r3
 2833 025e 70E0      		ldi r23,lo8(0)
 2834 0260 8091 0000 		lds r24,height
 2835 0264 282F      		mov r18,r24
 2836 0266 30E0      		ldi r19,lo8(0)
 2837 0268 C601      		movw r24,r12
 2838 026a 821B      		sub r24,r18
 2839 026c 930B      		sbc r25,r19
 2840 026e 8617      		cp r24,r22
 2841 0270 9707      		cpc r25,r23
 2842 0272 04F4      		brge .L126
 2843 0274 2C0D      		add r18,r12
 2844 0276 3D1D      		adc r19,r13
 2845 0278 6217      		cp r22,r18
 2846 027a 7307      		cpc r23,r19
 2847 027c 04F4      		brge .L126
 2848               	.LSM296:
 2849 027e 81E0      		ldi r24,lo8(1)
 2850 0280 90E0      		ldi r25,hi8(1)
 2851 0282 9093 0000 		sts (gotSword)+1,r25
 2852 0286 8093 0000 		sts gotSword,r24
 2853               	.L126:
 2854               	/* epilogue start */
 2855               	.LSM297:
 2856 028a DF91      		pop r29
 2857 028c CF91      		pop r28
 2858 028e 1F91      		pop r17
 2859 0290 0F91      		pop r16
 2860 0292 FF90      		pop r15
 2861 0294 EF90      		pop r14
 2862 0296 DF90      		pop r13
 2863 0298 CF90      		pop r12
 2864               	.LVL147:
 2865 029a BF90      		pop r11
 2866 029c AF90      		pop r10
 2867               	.LVL148:
 2868 029e 9F90      		pop r9
 2869 02a0 8F90      		pop r8
 2870 02a2 7F90      		pop r7
 2871               	.LVL149:
 2872 02a4 6F90      		pop r6
 2873 02a6 5F90      		pop r5
 2874 02a8 4F90      		pop r4
 2875 02aa 3F90      		pop r3
 2876               	.LVL150:
 2877 02ac 2F90      		pop r2
 2878               	.LVL151:
 2879 02ae 0895      		ret
 2880               	.LFE22:
 2882               		.section	.text.main,"ax",@progbits
 2883               	.global	main
 2885               	main:
 2886               	.LFB7:
 2887               	.LSM298:
 2888 0000 2F92      		push r2
 2889 0002 3F92      		push r3
 2890 0004 4F92      		push r4
 2891 0006 5F92      		push r5
 2892 0008 6F92      		push r6
 2893 000a 7F92      		push r7
 2894 000c 8F92      		push r8
 2895 000e 9F92      		push r9
 2896 0010 AF92      		push r10
 2897 0012 BF92      		push r11
 2898 0014 CF92      		push r12
 2899 0016 DF92      		push r13
 2900 0018 EF92      		push r14
 2901 001a FF92      		push r15
 2902 001c 0F93      		push r16
 2903 001e 1F93      		push r17
 2904 0020 DF93      		push r29
 2905 0022 CF93      		push r28
 2906 0024 CDB7      		in r28,__SP_L__
 2907 0026 DEB7      		in r29,__SP_H__
 2908 0028 CD5E      		subi r28,lo8(-(-237))
 2909 002a D040      		sbci r29,hi8(-(-237))
 2910 002c 0FB6      		in __tmp_reg__,__SREG__
 2911 002e F894      		cli
 2912 0030 DEBF      		out __SP_H__,r29
 2913 0032 0FBE      		out __SREG__,__tmp_reg__
 2914 0034 CDBF      		out __SP_L__,r28
 2915               	/* prologue: function */
 2916               	/* frame size = 237 */
 2917               	.LSM299:
 2918 0036 0E94 0000 		call setupGame
 2919               	.LSM300:
 2920 003a 0E94 0000 		call clear
 2921               	.LSM301:
 2922 003e 0E94 0000 		call refresh
 2923               	.LSM302:
 2924 0042 DE01      		movw r26,r28
 2925 0044 1196      		adiw r26,1
 2926 0046 E0E0      		ldi r30,lo8(C.0.1778)
 2927 0048 F0E0      		ldi r31,hi8(C.0.1778)
 2928 004a 83E0      		ldi r24,lo8(3)
 2929               	.L133:
 2930 004c 0190      		ld r0,Z+
 2931 004e 0D92      		st X+,r0
 2932 0050 8150      		subi r24,lo8(-(-1))
 2933 0052 01F4      		brne .L133
 2934               	.LSM303:
 2935 0054 DE01      		movw r26,r28
 2936 0056 1496      		adiw r26,4
 2937 0058 E0E0      		ldi r30,lo8(C.1.1779)
 2938 005a F0E0      		ldi r31,hi8(C.1.1779)
 2939 005c 83E0      		ldi r24,lo8(3)
 2940               	.L134:
 2941 005e 0190      		ld r0,Z+
 2942 0060 0D92      		st X+,r0
 2943 0062 8150      		subi r24,lo8(-(-1))
 2944 0064 01F4      		brne .L134
 2945               	.LSM304:
 2946 0066 8091 0000 		lds r24,width
 2947 006a 2091 0000 		lds r18,screen_x
 2948 006e 3091 0000 		lds r19,(screen_x)+1
 2949 0072 281B      		sub r18,r24
 2950 0074 3109      		sbc r19,__zero_reg__
 2951 0076 3093 0000 		sts (screen_x)+1,r19
 2952 007a 2093 0000 		sts screen_x,r18
 2953               	.LSM305:
 2954 007e 4091 0000 		lds r20,height
 2955 0082 8091 0000 		lds r24,screen_y
 2956 0086 9091 0000 		lds r25,(screen_y)+1
 2957 008a 841B      		sub r24,r20
 2958 008c 9109      		sbc r25,__zero_reg__
 2959 008e 9093 0000 		sts (screen_y)+1,r25
 2960 0092 8093 0000 		sts screen_y,r24
 2961               	.LSM306:
 2962 0096 62E0      		ldi r22,lo8(2)
 2963 0098 70E0      		ldi r23,hi8(2)
 2964 009a 0E94 0000 		call __divmodhi4
 2965 009e 4B01      		movw r8,r22
 2966               	.LVL152:
 2967 00a0 85E0      		ldi r24,lo8(5)
 2968 00a2 90E0      		ldi r25,hi8(5)
 2969 00a4 880E      		add r8,r24
 2970 00a6 991E      		adc r9,r25
 2971 00a8 A6E4      		ldi r26,lo8(70)
 2972 00aa CA2E      		mov r12,r26
 2973 00ac D12C      		mov r13,__zero_reg__
 2974 00ae CC0E      		add r12,r28
 2975 00b0 DD1E      		adc r13,r29
 2976 00b2 C901      		movw r24,r18
 2977 00b4 62E0      		ldi r22,lo8(2)
 2978 00b6 70E0      		ldi r23,hi8(2)
 2979 00b8 0E94 0000 		call __divmodhi4
 2980 00bc 562E      		mov r5,r22
 2981 00be F0E0      		ldi r31,lo8(zombie)
 2982 00c0 AF2E      		mov r10,r31
 2983 00c2 F0E0      		ldi r31,hi8(zombie)
 2984 00c4 BF2E      		mov r11,r31
 2985 00c6 162F      		mov r17,r22
 2986               	.LBB106:
 2987               	.LSM307:
 2988 00c8 E4E0      		ldi r30,lo8(4)
 2989 00ca 6E2E      		mov r6,r30
 2990 00cc 712C      		mov r7,__zero_reg__
 2991 00ce 6C0E      		add r6,r28
 2992 00d0 7D1E      		adc r7,r29
 2993               	.L135:
 2994               	.LSM308:
 2995 00d2 F501      		movw r30,r10
 2996 00d4 C082      		st Z,r12
 2997 00d6 D182      		std Z+1,r13
 2998               	.LSM309:
 2999 00d8 C601      		movw r24,r12
 3000 00da 612F      		mov r22,r17
 3001 00dc 482D      		mov r20,r8
 3002 00de 2091 0000 		lds r18,width
 3003 00e2 0091 0000 		lds r16,height
 3004 00e6 7301      		movw r14,r6
 3005 00e8 0E94 0000 		call init_sprite
 3006 00ec 82E0      		ldi r24,lo8(2)
 3007 00ee 90E0      		ldi r25,hi8(2)
 3008 00f0 A80E      		add r10,r24
 3009 00f2 B91E      		adc r11,r25
 3010 00f4 E5E1      		ldi r30,lo8(21)
 3011 00f6 F0E0      		ldi r31,hi8(21)
 3012 00f8 CE0E      		add r12,r30
 3013 00fa DF1E      		adc r13,r31
 3014 00fc 1D5F      		subi r17,lo8(-(3))
 3015               	.LSM310:
 3016 00fe F0E0      		ldi r31,lo8(zombie+16)
 3017 0100 AF16      		cp r10,r31
 3018 0102 F0E0      		ldi r31,hi8(zombie+16)
 3019 0104 BF06      		cpc r11,r31
 3020 0106 01F4      		brne .L135
 3021               	.LBE106:
 3022               	.LSM311:
 3023 0108 CE01      		movw r24,r28
 3024 010a 0796      		adiw r24,7
 3025 010c 9093 0000 		sts (sword)+1,r25
 3026 0110 8093 0000 		sts sword,r24
 3027               	.LSM312:
 3028 0114 9E01      		movw r18,r28
 3029 0116 245E      		subi r18,lo8(-(28))
 3030 0118 3F4F      		sbci r19,hi8(-(28))
 3031 011a 3093 0000 		sts (swordStatus)+1,r19
 3032 011e 2093 0000 		sts swordStatus,r18
 3033               	.LSM313:
 3034 0122 66EF      		ldi r22,lo8(-10)
 3035 0124 46EF      		ldi r20,lo8(-10)
 3036 0126 2091 0000 		lds r18,width
 3037 012a 0091 0000 		lds r16,height
 3038 012e 70E0      		ldi r23,lo8(bitSwordLeft)
 3039 0130 E72E      		mov r14,r23
 3040 0132 70E0      		ldi r23,hi8(bitSwordLeft)
 3041 0134 F72E      		mov r15,r23
 3042 0136 0E94 0000 		call init_sprite
 3043               	.LSM314:
 3044 013a 8091 0000 		lds r24,swordStatus
 3045 013e 9091 0000 		lds r25,(swordStatus)+1
 3046 0142 66EF      		ldi r22,lo8(-10)
 3047 0144 46EF      		ldi r20,lo8(-10)
 3048 0146 2091 0000 		lds r18,width
 3049 014a 0091 0000 		lds r16,height
 3050 014e 50E0      		ldi r21,lo8(bitSwordUp)
 3051 0150 E52E      		mov r14,r21
 3052 0152 50E0      		ldi r21,hi8(bitSwordUp)
 3053 0154 F52E      		mov r15,r21
 3054 0156 0E94 0000 		call init_sprite
 3055               	.LSM315:
 3056 015a 0E94 0000 		call setupSword
 3057               	.LSM316:
 3058 015e 0E94 0000 		call setupZombies
 3059               	.LSM317:
 3060 0162 0E94 0000 		call setupPit
 3061               	.LSM318:
 3062 0166 CE01      		movw r24,r28
 3063 0168 C196      		adiw r24,49
 3064 016a 9093 0000 		sts (my_pointer)+1,r25
 3065 016e 8093 0000 		sts my_pointer,r24
 3066               	.LSM319:
 3067 0172 652D      		mov r22,r5
 3068 0174 482D      		mov r20,r8
 3069 0176 2091 0000 		lds r18,width
 3070 017a 0091 0000 		lds r16,height
 3071 017e 7E01      		movw r14,r28
 3072 0180 0894      		sec
 3073 0182 E11C      		adc r14,__zero_reg__
 3074 0184 F11C      		adc r15,__zero_reg__
 3075 0186 0E94 0000 		call init_sprite
 3076               	.LSM320:
 3077 018a 8091 0000 		lds r24,my_pointer
 3078 018e 9091 0000 		lds r25,(my_pointer)+1
 3079 0192 0E94 0000 		call draw_sprite
 3080 0196 40EF      		ldi r20,lo8(-16)
 3081 0198 E42E      		mov r14,r20
 3082 019a 4FEF      		ldi r20,hi8(-16)
 3083 019c F42E      		mov r15,r20
 3084 019e EA0C      		add r14,r10
 3085 01a0 FB1C      		adc r15,r11
 3086               	.L136:
 3087               	.LBB107:
 3088               	.LSM321:
 3089 01a2 F701      		movw r30,r14
 3090 01a4 8191      		ld r24,Z+
 3091 01a6 9191      		ld r25,Z+
 3092 01a8 7F01      		movw r14,r30
 3093 01aa 0E94 0000 		call draw_sprite
 3094               	.LSM322:
 3095 01ae F0E0      		ldi r31,lo8(zombie+16)
 3096 01b0 EF16      		cp r14,r31
 3097 01b2 F0E0      		ldi r31,hi8(zombie+16)
 3098 01b4 FF06      		cpc r15,r31
 3099 01b6 01F4      		brne .L136
 3100               	.LBE107:
 3101               	.LSM323:
 3102 01b8 0E94 0000 		call refresh
 3103 01bc 88EE      		ldi r24,lo8(1000)
 3104 01be 93E0      		ldi r25,hi8(1000)
 3105               	.LVL153:
 3106               	.LBB108:
 3107               	.LBB109:
 3108               	.LBB110:
 3109               	.LBB111:
 3110               	.LSM324:
 3111 01c0 20E9      		ldi r18,lo8(400)
 3112 01c2 31E0      		ldi r19,hi8(400)
 3113               	.L137:
 3114 01c4 F901      		movw r30,r18
 3115               	.LVL154:
 3116               	/* #APP */
 3117               	 ;  105 "c:/winavr-20100110/lib/gcc/../../avr/include/util/delay_basic.h" 1
 3118 01c6 3197      		1: sbiw r30,1
 3119 01c8 01F4      		brne 1b
 3120               	 ;  0 "" 2
 3121               	/* #NOAPP */
 3122               	.LBE111:
 3123               	.LBE110:
 3124               	.LSM325:
 3125 01ca 0197      		sbiw r24,1
 3126               	.LSM326:
 3127 01cc 01F4      		brne .L137
 3128               	.LBE109:
 3129               	.LBE108:
 3130               	.LSM327:
 3131 01ce 81E0      		ldi r24,lo8(1)
 3132 01d0 90E0      		ldi r25,hi8(1)
 3133               	.LVL155:
 3134 01d2 9093 0000 		sts (GAMEON)+1,r25
 3135 01d6 8093 0000 		sts GAMEON,r24
 3136 01da 01E0      		ldi r16,lo8(1)
 3137 01dc 10E0      		ldi r17,hi8(1)
 3138               	.LVL156:
 3139 01de 31E0      		ldi r19,lo8(1)
 3140 01e0 C32E      		mov r12,r19
 3141 01e2 D12C      		mov r13,__zero_reg__
 3142               	.LVL157:
 3143               	.LSM328:
 3144 01e4 23E0      		ldi r18,lo8(3)
 3145 01e6 222E      		mov r2,r18
 3146 01e8 312C      		mov r3,__zero_reg__
 3147               	.LSM329:
 3148 01ea 0F2E      		mov __tmp_reg__,r31
 3149 01ec F0E0      		ldi r31,lo8(0x42200000)
 3150 01ee 4F2E      		mov r4,r31
 3151 01f0 F0E0      		ldi r31,hi8(0x42200000)
 3152 01f2 5F2E      		mov r5,r31
 3153 01f4 F0E2      		ldi r31,hlo8(0x42200000)
 3154 01f6 6F2E      		mov r6,r31
 3155 01f8 F2E4      		ldi r31,hhi8(0x42200000)
 3156 01fa 7F2E      		mov r7,r31
 3157 01fc F02D      		mov r31,__tmp_reg__
 3158               	.LSM330:
 3159 01fe 0F2E      		mov __tmp_reg__,r31
 3160 0200 F0E0      		ldi r31,lo8(0x0)
 3161 0202 8F2E      		mov r8,r31
 3162 0204 F0E0      		ldi r31,hi8(0x0)
 3163 0206 9F2E      		mov r9,r31
 3164 0208 F0E0      		ldi r31,hlo8(0x0)
 3165 020a AF2E      		mov r10,r31
 3166 020c F0E0      		ldi r31,hhi8(0x0)
 3167 020e BF2E      		mov r11,r31
 3168 0210 F02D      		mov r31,__tmp_reg__
 3169               	.LVL158:
 3170 0212 00C0      		rjmp .L138
 3171               	.L146:
 3172               	.LSM331:
 3173 0214 0E94 0000 		call clear
 3174               	.LVL159:
 3175               	.LSM332:
 3176 0218 8091 0000 		lds r24,RIGHT
 3177 021c 9091 0000 		lds r25,(RIGHT)+1
 3178 0220 892B      		or r24,r25
 3179 0222 01F4      		brne .L139
 3180 0224 01E0      		ldi r16,lo8(1)
 3181 0226 10E0      		ldi r17,hi8(1)
 3182               	.L139:
 3183               	.LSM333:
 3184 0228 8091 0000 		lds r24,LEFT
 3185 022c 9091 0000 		lds r25,(LEFT)+1
 3186 0230 892B      		or r24,r25
 3187 0232 01F4      		brne .L140
 3188 0234 91E0      		ldi r25,lo8(1)
 3189 0236 C92E      		mov r12,r25
 3190 0238 D12C      		mov r13,__zero_reg__
 3191               	.L140:
 3192               	.LSM334:
 3193 023a 8091 0000 		lds r24,RIGHT
 3194 023e 9091 0000 		lds r25,(RIGHT)+1
 3195 0242 892B      		or r24,r25
 3196 0244 01F0      		breq .L141
 3197 0246 0115      		cp r16,__zero_reg__
 3198 0248 1105      		cpc r17,__zero_reg__
 3199 024a 01F0      		breq .L141
 3200               	.LSM335:
 3201 024c 8091 0000 		lds r24,Direction
 3202 0250 9091 0000 		lds r25,(Direction)+1
 3203 0254 0197      		sbiw r24,1
 3204 0256 9093 0000 		sts (Direction)+1,r25
 3205 025a 8093 0000 		sts Direction,r24
 3206               	.LSM336:
 3207 025e 8091 0000 		lds r24,Direction
 3208 0262 9091 0000 		lds r25,(Direction)+1
 3209 0266 97FF      		sbrs r25,7
 3210 0268 00C0      		rjmp .L154
 3211               	.L142:
 3212               	.LSM337:
 3213 026a 3092 0000 		sts (Direction)+1,r3
 3214 026e 2092 0000 		sts Direction,r2
 3215               	.L154:
 3216 0272 00E0      		ldi r16,lo8(0)
 3217 0274 10E0      		ldi r17,hi8(0)
 3218               	.L141:
 3219               	.LSM338:
 3220 0276 8091 0000 		lds r24,LEFT
 3221 027a 9091 0000 		lds r25,(LEFT)+1
 3222 027e 8C21      		and r24,r12
 3223 0280 9D21      		and r25,r13
 3224 0282 892B      		or r24,r25
 3225 0284 01F0      		breq .L143
 3226               	.LSM339:
 3227 0286 8091 0000 		lds r24,Direction
 3228 028a 9091 0000 		lds r25,(Direction)+1
 3229 028e 0196      		adiw r24,1
 3230 0290 64E0      		ldi r22,lo8(4)
 3231 0292 70E0      		ldi r23,hi8(4)
 3232 0294 0E94 0000 		call __divmodhi4
 3233 0298 9093 0000 		sts (Direction)+1,r25
 3234 029c 8093 0000 		sts Direction,r24
 3235 02a0 CC24      		clr r12
 3236 02a2 DD24      		clr r13
 3237               	.L143:
 3238               	.LSM340:
 3239 02a4 8091 0000 		lds r24,my_pointer
 3240 02a8 9091 0000 		lds r25,(my_pointer)+1
 3241 02ac 0E94 0000 		call draw_sprite
 3242               	.LSM341:
 3243 02b0 8091 0000 		lds r24,sword
 3244 02b4 9091 0000 		lds r25,(sword)+1
 3245 02b8 0E94 0000 		call draw_sprite
 3246               	.LSM342:
 3247 02bc 8091 0000 		lds r24,gotSword
 3248 02c0 9091 0000 		lds r25,(gotSword)+1
 3249 02c4 892B      		or r24,r25
 3250 02c6 01F0      		breq .L144
 3251               	.LSM343:
 3252 02c8 E091 0000 		lds r30,swordStatus
 3253 02cc F091 0000 		lds r31,(swordStatus)+1
 3254 02d0 4082      		st Z,r4
 3255 02d2 5182      		std Z+1,r5
 3256 02d4 6282      		std Z+2,r6
 3257 02d6 7382      		std Z+3,r7
 3258               	.LSM344:
 3259 02d8 8482      		std Z+4,r8
 3260 02da 9582      		std Z+5,r9
 3261 02dc A682      		std Z+6,r10
 3262 02de B782      		std Z+7,r11
 3263               	.LSM345:
 3264 02e0 CF01      		movw r24,r30
 3265 02e2 0E94 0000 		call draw_sprite
 3266               	.L144:
 3267 02e6 80E0      		ldi r24,lo8(zombie)
 3268 02e8 E82E      		mov r14,r24
 3269 02ea 80E0      		ldi r24,hi8(zombie)
 3270 02ec F82E      		mov r15,r24
 3271               	.L145:
 3272               	.LBB112:
 3273               	.LSM346:
 3274 02ee F701      		movw r30,r14
 3275 02f0 8191      		ld r24,Z+
 3276 02f2 9191      		ld r25,Z+
 3277 02f4 7F01      		movw r14,r30
 3278 02f6 0E94 0000 		call draw_sprite
 3279               	.LSM347:
 3280 02fa F0E0      		ldi r31,lo8(zombie+16)
 3281 02fc EF16      		cp r14,r31
 3282 02fe F0E0      		ldi r31,hi8(zombie+16)
 3283 0300 FF06      		cpc r15,r31
 3284 0302 01F4      		brne .L145
 3285               	.LBE112:
 3286               	.LSM348:
 3287 0304 0E94 0000 		call drawPit
 3288               	.LSM349:
 3289 0308 0E94 0000 		call drawScreen
 3290               	.LSM350:
 3291 030c 0E94 0000 		call refresh
 3292               	.LSM351:
 3293 0310 0E94 0000 		call collision
 3294               	.LVL160:
 3295               	.L138:
 3296               	.LSM352:
 3297 0314 8091 0000 		lds r24,GAMEON
 3298 0318 9091 0000 		lds r25,(GAMEON)+1
 3299 031c 892B      		or r24,r25
 3300 031e 01F0      		breq .+2
 3301 0320 00C0      		rjmp .L146
 3302               	.LSM353:
 3303 0322 80E0      		ldi r24,lo8(0)
 3304 0324 90E0      		ldi r25,hi8(0)
 3305               	/* epilogue start */
 3306 0326 C351      		subi r28,lo8(-(237))
 3307 0328 DF4F      		sbci r29,hi8(-(237))
 3308 032a 0FB6      		in __tmp_reg__,__SREG__
 3309 032c F894      		cli
 3310 032e DEBF      		out __SP_H__,r29
 3311 0330 0FBE      		out __SREG__,__tmp_reg__
 3312 0332 CDBF      		out __SP_L__,r28
 3313 0334 CF91      		pop r28
 3314 0336 DF91      		pop r29
 3315 0338 1F91      		pop r17
 3316 033a 0F91      		pop r16
 3317               	.LVL161:
 3318 033c FF90      		pop r15
 3319 033e EF90      		pop r14
 3320 0340 DF90      		pop r13
 3321 0342 CF90      		pop r12
 3322               	.LVL162:
 3323 0344 BF90      		pop r11
 3324 0346 AF90      		pop r10
 3325 0348 9F90      		pop r9
 3326 034a 8F90      		pop r8
 3327 034c 7F90      		pop r7
 3328 034e 6F90      		pop r6
 3329 0350 5F90      		pop r5
 3330 0352 4F90      		pop r4
 3331 0354 3F90      		pop r3
 3332 0356 2F90      		pop r2
 3333 0358 0895      		ret
 3334               	.LFE7:
 3336               	.global	LEFT
 3337               	.global	LEFT
 3338               		.section .bss
 3341               	LEFT:
 3342 0000 0000      		.skip 2,0
 3343               	.global	RIGHT
 3344               	.global	RIGHT
 3347               	RIGHT:
 3348 0002 0000      		.skip 2,0
 3349               	.global	screen_x
 3350               		.data
 3353               	screen_x:
 3354 005f 5300      		.word	83
 3355               	.global	screen_x_Full
 3358               	screen_x_Full:
 3359 0061 5300      		.word	83
 3360               	.global	screen_y
 3363               	screen_y:
 3364 0063 2F00      		.word	47
 3365               	.global	screen_y_Full
 3368               	screen_y_Full:
 3369 0065 2F00      		.word	47
 3370               	.global	charWidth
 3373               	charWidth:
 3374 0067 0800      		.word	8
 3375               	.global	charHeight
 3378               	charHeight:
 3379 0069 0800      		.word	8
 3380               	.global	previousLEFT
 3381               	.global	previousLEFT
 3382               		.section .bss
 3385               	previousLEFT:
 3386 0004 0000      		.skip 2,0
 3387               	.global	previousRIGHT
 3388               	.global	previousRIGHT
 3391               	previousRIGHT:
 3392 0006 0000      		.skip 2,0
 3393               	.global	buttonPressed
 3394               	.global	buttonPressed
 3397               	buttonPressed:
 3398 0008 0000      		.skip 2,0
 3399               	.global	previousButton
 3400               	.global	previousButton
 3403               	previousButton:
 3404 000a 0000      		.skip 2,0
 3405               	.global	Direction
 3406               		.data
 3409               	Direction:
 3410 006b 0100      		.word	1
 3411               	.global	zDirection
 3414               	zDirection:
 3415 006d 0100      		.word	1
 3416 006f 0000 0000 		.skip 14,0
 3416      0000 0000 
 3416      0000 0000 
 3416      0000 
 3417               	.global	clockCounter
 3418               	.global	clockCounter
 3419               		.section .bss
 3422               	clockCounter:
 3423 000c 0000      		.skip 2,0
 3424               	.global	stepsCounter
 3425               	.global	stepsCounter
 3428               	stepsCounter:
 3429 000e 0000      		.skip 2,0
 3430               	.global	GAMEON
 3431               	.global	GAMEON
 3434               	GAMEON:
 3435 0010 0000      		.skip 2,0
 3436               	.global	width
 3437               		.data
 3440               	width:
 3441 007d 03        		.byte	3
 3442               	.global	height
 3445               	height:
 3446 007e 03        		.byte	3
 3447               	.global	Lives
 3450               	Lives:
 3451 007f 0300      		.word	3
 3452               	.global	Score
 3453               	.global	Score
 3454               		.section .bss
 3457               	Score:
 3458 0012 0000      		.skip 2,0
 3459               	.global	gotSword
 3460               	.global	gotSword
 3463               	gotSword:
 3464 0014 0000      		.skip 2,0
 3465               	.global	bitSwordLeft
 3466               		.data
 3469               	bitSwordLeft:
 3470 0081 20        		.byte	32
 3471 0082 E0        		.byte	-32
 3472 0083 20        		.byte	32
 3473               	.global	bitSwordRight
 3476               	bitSwordRight:
 3477 0084 80        		.byte	-128
 3478 0085 E0        		.byte	-32
 3479 0086 80        		.byte	-128
 3480               	.global	bitSwordUp
 3483               	bitSwordUp:
 3484 0087 40        		.byte	64
 3485 0088 40        		.byte	64
 3486 0089 E0        		.byte	-32
 3487               	.global	bitSwordDown
 3490               	bitSwordDown:
 3491 008a E0        		.byte	-32
 3492 008b 40        		.byte	64
 3493 008c 40        		.byte	64
 3496               	C.1.1779:
 3497 008d E0        		.byte	-32
 3498 008e 40        		.byte	64
 3499 008f E0        		.byte	-32
 3502               	C.0.1778:
 3503 0090 A0        		.byte	-96
 3504 0091 E0        		.byte	-32
 3505 0092 A0        		.byte	-96
 3506               		.comm Touched,2,1
 3507               		.comm Over,2,1
 3508               		.comm pitLeft,2,1
 3509               		.comm pitRight,2,1
 3510               		.comm pitTop,2,1
 3511               		.comm pitBottom,2,1
 3512               		.comm my_pointer,2,1
 3513               		.comm zombie,16,1
 3514               		.comm sword,2,1
 3515               		.comm swordStatus,2,1
 3692               	.Letext0:
DEFINED SYMBOLS
                            *ABS*:00000000 solution.c
C:\cygwin\tmp/cc7xKzCh.s:2      *ABS*:0000003f __SREG__
C:\cygwin\tmp/cc7xKzCh.s:3      *ABS*:0000003e __SP_H__
C:\cygwin\tmp/cc7xKzCh.s:4      *ABS*:0000003d __SP_L__
C:\cygwin\tmp/cc7xKzCh.s:5      *ABS*:00000034 __CCP__
C:\cygwin\tmp/cc7xKzCh.s:6      *ABS*:00000000 __tmp_reg__
C:\cygwin\tmp/cc7xKzCh.s:7      *ABS*:00000001 __zero_reg__
C:\cygwin\tmp/cc7xKzCh.s:19     .text.buttonCheck:00000000 buttonCheck
C:\cygwin\tmp/cc7xKzCh.s:3347   .bss:00000002 RIGHT
C:\cygwin\tmp/cc7xKzCh.s:3341   .bss:00000000 LEFT
C:\cygwin\tmp/cc7xKzCh.s:117    .text.PinChangeInit:00000000 PinChangeInit
C:\cygwin\tmp/cc7xKzCh.s:158    .text.__vector_9:00000000 __vector_9
C:\cygwin\tmp/cc7xKzCh.s:207    .text.TimerInit:00000000 TimerInit
C:\cygwin\tmp/cc7xKzCh.s:248    .text.setupHero:00000000 setupHero
C:\cygwin\tmp/cc7xKzCh.s:3363   .data:00000063 screen_y
                            *COM*:00000002 my_pointer
C:\cygwin\tmp/cc7xKzCh.s:3353   .data:0000005f screen_x
C:\cygwin\tmp/cc7xKzCh.s:318    .text.isInPit:00000000 isInPit
                            *COM*:00000002 pitLeft
C:\cygwin\tmp/cc7xKzCh.s:3440   .data:0000007d width
                            *COM*:00000002 pitRight
                            *COM*:00000002 pitTop
C:\cygwin\tmp/cc7xKzCh.s:3445   .data:0000007e height
                            *COM*:00000002 pitBottom
C:\cygwin\tmp/cc7xKzCh.s:404    .text.heroForward:00000000 heroForward
C:\cygwin\tmp/cc7xKzCh.s:3409   .data:0000006b Direction
                            *COM*:00000002 sword
C:\cygwin\tmp/cc7xKzCh.s:3490   .data:0000008a bitSwordDown
C:\cygwin\tmp/cc7xKzCh.s:3463   .bss:00000014 gotSword
C:\cygwin\tmp/cc7xKzCh.s:3476   .data:00000084 bitSwordRight
C:\cygwin\tmp/cc7xKzCh.s:3483   .data:00000087 bitSwordUp
C:\cygwin\tmp/cc7xKzCh.s:3469   .data:00000081 bitSwordLeft
C:\cygwin\tmp/cc7xKzCh.s:1013   .text.drawPit:00000000 drawPit
C:\cygwin\tmp/cc7xKzCh.s:1055   .text.drawScreen:00000000 drawScreen
C:\cygwin\tmp/cc7xKzCh.s:3358   .data:00000061 screen_x_Full
C:\cygwin\tmp/cc7xKzCh.s:3368   .data:00000065 screen_y_Full
C:\cygwin\tmp/cc7xKzCh.s:3450   .data:0000007f Lives
C:\cygwin\tmp/cc7xKzCh.s:3457   .bss:00000012 Score
C:\cygwin\tmp/cc7xKzCh.s:1134   .text.CountDown:00000000 CountDown
C:\cygwin\tmp/cc7xKzCh.s:1215   .text.seedWithButtonPress:00000000 seedWithButtonPress
C:\cygwin\tmp/cc7xKzCh.s:1259   .text.randInRange:00000000 randInRange
C:\cygwin\tmp/cc7xKzCh.s:1299   .text.setupSword:00000000 setupSword
C:\cygwin\tmp/cc7xKzCh.s:1380   .text.setupPit:00000000 setupPit
C:\cygwin\tmp/cc7xKzCh.s:1451   .text.setupZombies:00000000 setupZombies
                            *COM*:00000010 zombie
C:\cygwin\tmp/cc7xKzCh.s:3414   .data:0000006d zDirection
C:\cygwin\tmp/cc7xKzCh.s:1895   .text.zombiesForward:00000000 zombiesForward
C:\cygwin\tmp/cc7xKzCh.s:2271   .text.__vector_23:00000000 __vector_23
C:\cygwin\tmp/cc7xKzCh.s:3422   .bss:0000000c clockCounter
C:\cygwin\tmp/cc7xKzCh.s:3434   .bss:00000010 GAMEON
C:\cygwin\tmp/cc7xKzCh.s:3428   .bss:0000000e stepsCounter
C:\cygwin\tmp/cc7xKzCh.s:2364   .text.setupGame:00000000 setupGame
C:\cygwin\tmp/cc7xKzCh.s:2441   .text.collision:00000000 collision
C:\cygwin\tmp/cc7xKzCh.s:2885   .text.main:00000000 main
C:\cygwin\tmp/cc7xKzCh.s:3502   .data:00000090 C.0.1778
C:\cygwin\tmp/cc7xKzCh.s:3496   .data:0000008d C.1.1779
                            *COM*:00000002 swordStatus
C:\cygwin\tmp/cc7xKzCh.s:3373   .data:00000067 charWidth
C:\cygwin\tmp/cc7xKzCh.s:3378   .data:00000069 charHeight
C:\cygwin\tmp/cc7xKzCh.s:3385   .bss:00000004 previousLEFT
C:\cygwin\tmp/cc7xKzCh.s:3391   .bss:00000006 previousRIGHT
C:\cygwin\tmp/cc7xKzCh.s:3397   .bss:00000008 buttonPressed
C:\cygwin\tmp/cc7xKzCh.s:3403   .bss:0000000a previousButton
                            *COM*:00000002 Touched
                            *COM*:00000002 Over

UNDEFINED SYMBOLS
__divmodhi4
__floatsisf
__fixsfsi
__addsf3
__gtsf2
__subsf3
__ltsf2
draw_line
draw_string
draw_character
clear
refresh
srand
rand
__floatunsisf
LCDInitialise
__fixunssfsi
init_sprite
draw_sprite
__do_copy_data
__do_clear_bss
