   1               		.file	"solution.c"
   2               	__SREG__ = 0x3f
   3               	__SP_H__ = 0x3e
   4               	__SP_L__ = 0x3d
   5               	__CCP__  = 0x34
   6               	__tmp_reg__ = 0
   7               	__zero_reg__ = 1
  15               	.Ltext0:
  16               		.section	.text.buttonCheck,"ax",@progbits
  17               	.global	buttonCheck
  19               	buttonCheck:
  20               	.LFB10:
  21               	.LSM0:
  22               	/* prologue: function */
  23               	/* frame size = 0 */
  24               	.LSM1:
  25 0000 1092 0000 		sts (RIGHT)+1,__zero_reg__
  26 0004 1092 0000 		sts RIGHT,__zero_reg__
  27 0008 1092 0000 		sts (LEFT)+1,__zero_reg__
  28 000c 1092 0000 		sts LEFT,__zero_reg__
  29               	.LSM2:
  30 0010 199B      		sbis 35-32,1
  31 0012 00C0      		rjmp .L2
  32 0014 84EF      		ldi r24,lo8(500)
  33 0016 91E0      		ldi r25,hi8(500)
  34               	.LVL0:
  35               	.LBB37:
  36               	.LBB38:
  37               	.LBB39:
  38               	.LBB40:
  39               	.LSM3:
  40 0018 20E9      		ldi r18,lo8(400)
  41 001a 31E0      		ldi r19,hi8(400)
  42               	.L3:
  43 001c F901      		movw r30,r18
  44               	.LVL1:
  45               	/* #APP */
  46               	 ;  105 "c:/winavr-20100110/lib/gcc/../../avr/include/util/delay_basic.h" 1
  47 001e 3197      		1: sbiw r30,1
  48 0020 01F4      		brne 1b
  49               	 ;  0 "" 2
  50               	/* #NOAPP */
  51               	.LBE40:
  52               	.LBE39:
  53               	.LSM4:
  54 0022 0197      		sbiw r24,1
  55               	.LSM5:
  56 0024 01F4      		brne .L3
  57               	.LBE38:
  58               	.LBE37:
  59               	.LSM6:
  60 0026 199B      		sbis 35-32,1
  61 0028 00C0      		rjmp .L2
  62               	.LSM7:
  63 002a 81E0      		ldi r24,lo8(1)
  64 002c 90E0      		ldi r25,hi8(1)
  65               	.LVL2:
  66 002e 9093 0000 		sts (RIGHT)+1,r25
  67 0032 8093 0000 		sts RIGHT,r24
  68               	.LVL3:
  69               	.L2:
  70               	.LSM8:
  71 0036 189B      		sbis 35-32,0
  72 0038 00C0      		rjmp .L6
  73 003a 84EF      		ldi r24,lo8(500)
  74 003c 91E0      		ldi r25,hi8(500)
  75               	.LVL4:
  76               	.LBB41:
  77               	.LBB42:
  78               	.LBB43:
  79               	.LBB44:
  80               	.LSM9:
  81 003e 20E9      		ldi r18,lo8(400)
  82 0040 31E0      		ldi r19,hi8(400)
  83               	.L5:
  84 0042 F901      		movw r30,r18
  85               	.LVL5:
  86               	/* #APP */
  87               	 ;  105 "c:/winavr-20100110/lib/gcc/../../avr/include/util/delay_basic.h" 1
  88 0044 3197      		1: sbiw r30,1
  89 0046 01F4      		brne 1b
  90               	 ;  0 "" 2
  91               	/* #NOAPP */
  92               	.LBE44:
  93               	.LBE43:
  94               	.LSM10:
  95 0048 0197      		sbiw r24,1
  96               	.LSM11:
  97 004a 01F4      		brne .L5
  98               	.LBE42:
  99               	.LBE41:
 100               	.LSM12:
 101 004c 189B      		sbis 35-32,0
 102 004e 00C0      		rjmp .L6
 103               	.LSM13:
 104 0050 81E0      		ldi r24,lo8(1)
 105 0052 90E0      		ldi r25,hi8(1)
 106               	.LVL6:
 107 0054 9093 0000 		sts (LEFT)+1,r25
 108 0058 8093 0000 		sts LEFT,r24
 109               	.LVL7:
 110               	.L6:
 111 005c 0895      		ret
 112               	.LFE10:
 114               		.section	.text.PinChangeInit,"ax",@progbits
 115               	.global	PinChangeInit
 117               	PinChangeInit:
 118               	.LFB13:
 119               	.LSM14:
 120               	/* prologue: function */
 121               	/* frame size = 0 */
 122               	.LSM15:
 123 0000 EBE6      		ldi r30,lo8(107)
 124 0002 F0E0      		ldi r31,hi8(107)
 125 0004 8081      		ld r24,Z
 126 0006 8160      		ori r24,lo8(1)
 127 0008 8083      		st Z,r24
 128               	.LSM16:
 129 000a 8081      		ld r24,Z
 130 000c 8260      		ori r24,lo8(2)
 131 000e 8083      		st Z,r24
 132               	.LSM17:
 133 0010 E8E6      		ldi r30,lo8(104)
 134 0012 F0E0      		ldi r31,hi8(104)
 135 0014 8081      		ld r24,Z
 136 0016 8160      		ori r24,lo8(1)
 137 0018 8083      		st Z,r24
 138               	.LSM18:
 139 001a E9E6      		ldi r30,lo8(105)
 140 001c F0E0      		ldi r31,hi8(105)
 141 001e 8081      		ld r24,Z
 142 0020 8160      		ori r24,lo8(1)
 143 0022 8083      		st Z,r24
 144               	.LSM19:
 145               	/* #APP */
 146               	 ;  294 "solution.c" 1
 147 0024 7894      		sei
 148               	 ;  0 "" 2
 149               	/* epilogue start */
 150               	.LSM20:
 151               	/* #NOAPP */
 152 0026 0895      		ret
 153               	.LFE13:
 155               		.section	.text.__vector_9,"ax",@progbits
 156               	.global	__vector_9
 158               	__vector_9:
 159               	.LFB14:
 160               	.LSM21:
 161 0000 1F92      		push __zero_reg__
 162 0002 0F92      		push r0
 163 0004 0FB6      		in r0,__SREG__
 164 0006 0F92      		push r0
 165 0008 1124      		clr __zero_reg__
 166 000a 8F93      		push r24
 167 000c 9F93      		push r25
 168               	/* prologue: Signal */
 169               	/* frame size = 0 */
 170               	.LSM22:
 171 000e 1092 0000 		sts (RIGHT)+1,__zero_reg__
 172 0012 1092 0000 		sts RIGHT,__zero_reg__
 173 0016 1092 0000 		sts (LEFT)+1,__zero_reg__
 174 001a 1092 0000 		sts LEFT,__zero_reg__
 175               	.LSM23:
 176 001e 199B      		sbis 35-32,1
 177 0020 00C0      		rjmp .L12
 178               	.LSM24:
 179 0022 81E0      		ldi r24,lo8(1)
 180 0024 90E0      		ldi r25,hi8(1)
 181 0026 9093 0000 		sts (RIGHT)+1,r25
 182 002a 8093 0000 		sts RIGHT,r24
 183               	.L12:
 184               	.LSM25:
 185 002e 189B      		sbis 35-32,0
 186 0030 00C0      		rjmp .L14
 187               	.LSM26:
 188 0032 81E0      		ldi r24,lo8(1)
 189 0034 90E0      		ldi r25,hi8(1)
 190 0036 9093 0000 		sts (LEFT)+1,r25
 191 003a 8093 0000 		sts LEFT,r24
 192               	.L14:
 193               	/* epilogue start */
 194               	.LSM27:
 195 003e 9F91      		pop r25
 196 0040 8F91      		pop r24
 197 0042 0F90      		pop r0
 198 0044 0FBE      		out __SREG__,r0
 199 0046 0F90      		pop r0
 200 0048 1F90      		pop __zero_reg__
 201 004a 1895      		reti
 202               	.LFE14:
 204               		.section	.text.TimerInit,"ax",@progbits
 205               	.global	TimerInit
 207               	TimerInit:
 208               	.LFB15:
 209               	.LSM28:
 210               	/* prologue: function */
 211               	/* frame size = 0 */
 212               	.LSM29:
 213 0000 84B5      		in r24,68-32
 214 0002 8D7F      		andi r24,lo8(-3)
 215 0004 84BD      		out 68-32,r24
 216               	.LSM30:
 217 0006 85B5      		in r24,69-32
 218 0008 877F      		andi r24,lo8(-9)
 219 000a 85BD      		out 69-32,r24
 220               	.LSM31:
 221 000c 85B5      		in r24,69-32
 222 000e 8560      		ori r24,lo8(5)
 223 0010 85BD      		out 69-32,r24
 224               	.LSM32:
 225 0012 85B5      		in r24,69-32
 226 0014 8D7F      		andi r24,lo8(-3)
 227 0016 85BD      		out 69-32,r24
 228               	.LSM33:
 229 0018 EEE6      		ldi r30,lo8(110)
 230 001a F0E0      		ldi r31,hi8(110)
 231 001c 8081      		ld r24,Z
 232 001e 8160      		ori r24,lo8(1)
 233 0020 8083      		st Z,r24
 234               	.LSM34:
 235               	/* #APP */
 236               	 ;  356 "solution.c" 1
 237 0022 7894      		sei
 238               	 ;  0 "" 2
 239               	/* epilogue start */
 240               	.LSM35:
 241               	/* #NOAPP */
 242 0024 0895      		ret
 243               	.LFE15:
 245               		.section	.text.heroForward,"ax",@progbits
 246               	.global	heroForward
 248               	heroForward:
 249               	.LFB17:
 250               	.LSM36:
 251 0000 0F93      		push r16
 252 0002 1F93      		push r17
 253               	/* prologue: function */
 254               	/* frame size = 0 */
 255               	.LSM37:
 256 0004 8091 0000 		lds r24,Direction
 257 0008 9091 0000 		lds r25,(Direction)+1
 258 000c 892B      		or r24,r25
 259 000e 01F4      		brne .L18
 260               	.LSM38:
 261 0010 81E0      		ldi r24,lo8(1)
 262 0012 90E0      		ldi r25,hi8(1)
 263 0014 9093 0000 		sts (HeroY)+1,r25
 264 0018 8093 0000 		sts HeroY,r24
 265               	.LSM39:
 266 001c 1092 0000 		sts (HeroX)+1,__zero_reg__
 267 0020 1092 0000 		sts HeroX,__zero_reg__
 268               	.LSM40:
 269 0024 0091 0000 		lds r16,my_pointer
 270 0028 1091 0000 		lds r17,(my_pointer)+1
 271 002c 6091 0000 		lds r22,screen_y
 272 0030 7091 0000 		lds r23,(screen_y)+1
 273 0034 6150      		subi r22,lo8(-(-1))
 274 0036 7040      		sbci r23,hi8(-(-1))
 275 0038 8827      		clr r24
 276 003a 77FD      		sbrc r23,7
 277 003c 8095      		com r24
 278 003e 982F      		mov r25,r24
 279 0040 0E94 0000 		call __floatsisf
 280 0044 9B01      		movw r18,r22
 281 0046 AC01      		movw r20,r24
 282 0048 F801      		movw r30,r16
 283 004a 6481      		ldd r22,Z+4
 284 004c 7581      		ldd r23,Z+5
 285 004e 8681      		ldd r24,Z+6
 286 0050 9781      		ldd r25,Z+7
 287 0052 0E94 0000 		call __gtsf2
 288 0056 1816      		cp __zero_reg__,r24
 289 0058 04F4      		brge .L18
 290               	.LSM41:
 291 005a 1092 0000 		sts (HeroY)+1,__zero_reg__
 292 005e 1092 0000 		sts HeroY,__zero_reg__
 293               	.L18:
 294               	.LSM42:
 295 0062 8091 0000 		lds r24,Direction
 296 0066 9091 0000 		lds r25,(Direction)+1
 297 006a 8130      		cpi r24,1
 298 006c 9105      		cpc r25,__zero_reg__
 299 006e 01F4      		brne .L20
 300               	.LSM43:
 301 0070 9093 0000 		sts (HeroX)+1,r25
 302 0074 8093 0000 		sts HeroX,r24
 303               	.LSM44:
 304 0078 1092 0000 		sts (HeroY)+1,__zero_reg__
 305 007c 1092 0000 		sts HeroY,__zero_reg__
 306               	.LSM45:
 307 0080 0091 0000 		lds r16,my_pointer
 308 0084 1091 0000 		lds r17,(my_pointer)+1
 309 0088 6091 0000 		lds r22,screen_x
 310 008c 7091 0000 		lds r23,(screen_x)+1
 311 0090 6150      		subi r22,lo8(-(-1))
 312 0092 7040      		sbci r23,hi8(-(-1))
 313 0094 8827      		clr r24
 314 0096 77FD      		sbrc r23,7
 315 0098 8095      		com r24
 316 009a 982F      		mov r25,r24
 317 009c 0E94 0000 		call __floatsisf
 318 00a0 9B01      		movw r18,r22
 319 00a2 AC01      		movw r20,r24
 320 00a4 F801      		movw r30,r16
 321 00a6 6081      		ld r22,Z
 322 00a8 7181      		ldd r23,Z+1
 323 00aa 8281      		ldd r24,Z+2
 324 00ac 9381      		ldd r25,Z+3
 325 00ae 0E94 0000 		call __gtsf2
 326 00b2 1816      		cp __zero_reg__,r24
 327 00b4 04F4      		brge .L20
 328               	.LSM46:
 329 00b6 1092 0000 		sts (HeroX)+1,__zero_reg__
 330 00ba 1092 0000 		sts HeroX,__zero_reg__
 331               	.L20:
 332               	.LSM47:
 333 00be 8091 0000 		lds r24,Direction
 334 00c2 9091 0000 		lds r25,(Direction)+1
 335 00c6 0297      		sbiw r24,2
 336 00c8 01F4      		brne .L22
 337               	.LSM48:
 338 00ca 8FEF      		ldi r24,lo8(-1)
 339 00cc 9FEF      		ldi r25,hi8(-1)
 340 00ce 9093 0000 		sts (HeroY)+1,r25
 341 00d2 8093 0000 		sts HeroY,r24
 342               	.LSM49:
 343 00d6 1092 0000 		sts (HeroX)+1,__zero_reg__
 344 00da 1092 0000 		sts HeroX,__zero_reg__
 345               	.LSM50:
 346 00de E091 0000 		lds r30,my_pointer
 347 00e2 F091 0000 		lds r31,(my_pointer)+1
 348 00e6 6481      		ldd r22,Z+4
 349 00e8 7581      		ldd r23,Z+5
 350 00ea 8681      		ldd r24,Z+6
 351 00ec 9781      		ldd r25,Z+7
 352 00ee 20E0      		ldi r18,lo8(0x41200000)
 353 00f0 30E0      		ldi r19,hi8(0x41200000)
 354 00f2 40E2      		ldi r20,hlo8(0x41200000)
 355 00f4 51E4      		ldi r21,hhi8(0x41200000)
 356 00f6 0E94 0000 		call __ltsf2
 357 00fa 8823      		tst r24
 358 00fc 04F4      		brge .L22
 359               	.LSM51:
 360 00fe 1092 0000 		sts (HeroY)+1,__zero_reg__
 361 0102 1092 0000 		sts HeroY,__zero_reg__
 362               	.L22:
 363               	.LSM52:
 364 0106 8091 0000 		lds r24,Direction
 365 010a 9091 0000 		lds r25,(Direction)+1
 366 010e 0397      		sbiw r24,3
 367 0110 01F4      		brne .L24
 368               	.LSM53:
 369 0112 8FEF      		ldi r24,lo8(-1)
 370 0114 9FEF      		ldi r25,hi8(-1)
 371 0116 9093 0000 		sts (HeroX)+1,r25
 372 011a 8093 0000 		sts HeroX,r24
 373               	.LSM54:
 374 011e 1092 0000 		sts (HeroY)+1,__zero_reg__
 375 0122 1092 0000 		sts HeroY,__zero_reg__
 376               	.LSM55:
 377 0126 E091 0000 		lds r30,my_pointer
 378 012a F091 0000 		lds r31,(my_pointer)+1
 379 012e 6081      		ld r22,Z
 380 0130 7181      		ldd r23,Z+1
 381 0132 8281      		ldd r24,Z+2
 382 0134 9381      		ldd r25,Z+3
 383 0136 20E0      		ldi r18,lo8(0x40000000)
 384 0138 30E0      		ldi r19,hi8(0x40000000)
 385 013a 40E0      		ldi r20,hlo8(0x40000000)
 386 013c 50E4      		ldi r21,hhi8(0x40000000)
 387 013e 0E94 0000 		call __ltsf2
 388 0142 8823      		tst r24
 389 0144 04F4      		brge .L24
 390               	.LSM56:
 391 0146 1092 0000 		sts (HeroX)+1,__zero_reg__
 392 014a 1092 0000 		sts HeroX,__zero_reg__
 393               	.L24:
 394               	.LSM57:
 395 014e 0091 0000 		lds r16,my_pointer
 396 0152 1091 0000 		lds r17,(my_pointer)+1
 397 0156 6091 0000 		lds r22,HeroX
 398 015a 7091 0000 		lds r23,(HeroX)+1
 399 015e 8827      		clr r24
 400 0160 77FD      		sbrc r23,7
 401 0162 8095      		com r24
 402 0164 982F      		mov r25,r24
 403 0166 0E94 0000 		call __floatsisf
 404 016a 9B01      		movw r18,r22
 405 016c AC01      		movw r20,r24
 406 016e F801      		movw r30,r16
 407 0170 6081      		ld r22,Z
 408 0172 7181      		ldd r23,Z+1
 409 0174 8281      		ldd r24,Z+2
 410 0176 9381      		ldd r25,Z+3
 411 0178 0E94 0000 		call __addsf3
 412 017c F801      		movw r30,r16
 413 017e 6083      		st Z,r22
 414 0180 7183      		std Z+1,r23
 415 0182 8283      		std Z+2,r24
 416 0184 9383      		std Z+3,r25
 417               	.LSM58:
 418 0186 6091 0000 		lds r22,HeroY
 419 018a 7091 0000 		lds r23,(HeroY)+1
 420 018e 8827      		clr r24
 421 0190 77FD      		sbrc r23,7
 422 0192 8095      		com r24
 423 0194 982F      		mov r25,r24
 424 0196 0E94 0000 		call __floatsisf
 425 019a 9B01      		movw r18,r22
 426 019c AC01      		movw r20,r24
 427 019e F801      		movw r30,r16
 428 01a0 6481      		ldd r22,Z+4
 429 01a2 7581      		ldd r23,Z+5
 430 01a4 8681      		ldd r24,Z+6
 431 01a6 9781      		ldd r25,Z+7
 432 01a8 0E94 0000 		call __addsf3
 433 01ac F801      		movw r30,r16
 434 01ae 6483      		std Z+4,r22
 435 01b0 7583      		std Z+5,r23
 436 01b2 8683      		std Z+6,r24
 437 01b4 9783      		std Z+7,r25
 438               	/* epilogue start */
 439               	.LSM59:
 440 01b6 1F91      		pop r17
 441 01b8 0F91      		pop r16
 442 01ba 0895      		ret
 443               	.LFE17:
 445               		.section	.text.__vector_23,"ax",@progbits
 446               	.global	__vector_23
 448               	__vector_23:
 449               	.LFB16:
 450               	.LSM60:
 451 0000 1F92      		push __zero_reg__
 452 0002 0F92      		push r0
 453 0004 0FB6      		in r0,__SREG__
 454 0006 0F92      		push r0
 455 0008 1124      		clr __zero_reg__
 456 000a 2F93      		push r18
 457 000c 3F93      		push r19
 458 000e 4F93      		push r20
 459 0010 5F93      		push r21
 460 0012 6F93      		push r22
 461 0014 7F93      		push r23
 462 0016 8F93      		push r24
 463 0018 9F93      		push r25
 464 001a AF93      		push r26
 465 001c BF93      		push r27
 466 001e EF93      		push r30
 467 0020 FF93      		push r31
 468               	/* prologue: Signal */
 469               	/* frame size = 0 */
 470               	.LSM61:
 471 0022 A89A      		sbi 53-32,0
 472               	.LSM62:
 473 0024 8091 0000 		lds r24,clockCounter
 474 0028 9091 0000 		lds r25,(clockCounter)+1
 475 002c 0196      		adiw r24,1
 476 002e 9093 0000 		sts (clockCounter)+1,r25
 477 0032 8093 0000 		sts clockCounter,r24
 478               	.LSM63:
 479 0036 8091 0000 		lds r24,clockCounter
 480 003a 9091 0000 		lds r25,(clockCounter)+1
 481 003e 0597      		sbiw r24,5
 482 0040 04F0      		brlt .L33
 483 0042 8091 0000 		lds r24,GAMEON
 484 0046 9091 0000 		lds r25,(GAMEON)+1
 485 004a 892B      		or r24,r25
 486 004c 01F0      		breq .L33
 487               	.LSM64:
 488 004e 1092 0000 		sts (clockCounter)+1,__zero_reg__
 489 0052 1092 0000 		sts clockCounter,__zero_reg__
 490               	.LSM65:
 491 0056 0E94 0000 		call heroForward
 492               	.L33:
 493               	/* epilogue start */
 494               	.LSM66:
 495 005a FF91      		pop r31
 496 005c EF91      		pop r30
 497 005e BF91      		pop r27
 498 0060 AF91      		pop r26
 499 0062 9F91      		pop r25
 500 0064 8F91      		pop r24
 501 0066 7F91      		pop r23
 502 0068 6F91      		pop r22
 503 006a 5F91      		pop r21
 504 006c 4F91      		pop r20
 505 006e 3F91      		pop r19
 506 0070 2F91      		pop r18
 507 0072 0F90      		pop r0
 508 0074 0FBE      		out __SREG__,r0
 509 0076 0F90      		pop r0
 510 0078 1F90      		pop __zero_reg__
 511 007a 1895      		reti
 512               	.LFE16:
 514               		.data
 515               	.LC0:
 516 0000 4C3A 2000 		.string	"L: "
 517               	.LC1:
 518 0004 533A 2000 		.string	"S: "
 519               		.section	.text.drawScreen,"ax",@progbits
 520               	.global	drawScreen
 522               	drawScreen:
 523               	.LFB18:
 524               	.LSM67:
 525               	/* prologue: function */
 526               	/* frame size = 0 */
 527               	.LSM68:
 528 0000 80E0      		ldi r24,lo8(0)
 529 0002 68E0      		ldi r22,lo8(8)
 530 0004 4091 0000 		lds r20,screen_x_Full
 531 0008 28E0      		ldi r18,lo8(8)
 532 000a 0E94 0000 		call draw_line
 533               	.LSM69:
 534 000e 80E0      		ldi r24,lo8(0)
 535 0010 68E0      		ldi r22,lo8(8)
 536 0012 40E0      		ldi r20,lo8(0)
 537 0014 2091 0000 		lds r18,screen_y_Full
 538 0018 0E94 0000 		call draw_line
 539               	.LSM70:
 540 001c 4091 0000 		lds r20,screen_x_Full
 541 0020 842F      		mov r24,r20
 542 0022 68E0      		ldi r22,lo8(8)
 543 0024 2091 0000 		lds r18,screen_y_Full
 544 0028 0E94 0000 		call draw_line
 545               	.LSM71:
 546 002c 2091 0000 		lds r18,screen_y_Full
 547 0030 80E0      		ldi r24,lo8(0)
 548 0032 622F      		mov r22,r18
 549 0034 4091 0000 		lds r20,screen_x_Full
 550 0038 0E94 0000 		call draw_line
 551               	.LSM72:
 552 003c 80E0      		ldi r24,lo8(.LC0)
 553 003e 90E0      		ldi r25,hi8(.LC0)
 554 0040 60E0      		ldi r22,lo8(0)
 555 0042 40E0      		ldi r20,lo8(0)
 556 0044 0E94 0000 		call draw_string
 557               	.LSM73:
 558 0048 8091 0000 		lds r24,Lives
 559 004c 805D      		subi r24,lo8(-(48))
 560 004e 6BE0      		ldi r22,lo8(11)
 561 0050 40E0      		ldi r20,lo8(0)
 562 0052 0E94 0000 		call draw_character
 563               	.LSM74:
 564 0056 80E0      		ldi r24,lo8(.LC1)
 565 0058 90E0      		ldi r25,hi8(.LC1)
 566 005a 65E1      		ldi r22,lo8(21)
 567 005c 40E0      		ldi r20,lo8(0)
 568 005e 0E94 0000 		call draw_string
 569               	.LSM75:
 570 0062 8091 0000 		lds r24,Score
 571 0066 805D      		subi r24,lo8(-(48))
 572 0068 6FE1      		ldi r22,lo8(31)
 573 006a 40E0      		ldi r20,lo8(0)
 574 006c 0E94 0000 		call draw_character
 575               	.LSM76:
 576 0070 8091 0000 		lds r24,Direction
 577 0074 9091 0000 		lds r25,(Direction)+1
 578 0078 805D      		subi r24,lo8(-(48))
 579 007a 66E4      		ldi r22,lo8(70)
 580 007c 40E0      		ldi r20,lo8(0)
 581 007e 0E94 0000 		call draw_character
 582               	/* epilogue start */
 583               	.LSM77:
 584 0082 0895      		ret
 585               	.LFE18:
 587               		.section	.text.seedWithButtonPress,"ax",@progbits
 588               	.global	seedWithButtonPress
 590               	seedWithButtonPress:
 591               	.LFB12:
 592               	.LSM78:
 593               	/* prologue: function */
 594               	/* frame size = 0 */
 595               	.LSM79:
 596 0000 5E9A      		sbi 43-32,6
 597               	.LSM80:
 598 0002 84B1      		in r24,36-32
 599 0004 8C60      		ori r24,lo8(12)
 600 0006 84B9      		out 36-32,r24
 601 0008 20E0      		ldi r18,lo8(0)
 602 000a 30E0      		ldi r19,hi8(0)
 603               	.LVL8:
 604 000c 00C0      		rjmp .L37
 605               	.L39:
 606               	.LSM81:
 607 000e 2F5F      		subi r18,lo8(-(1))
 608 0010 3F4F      		sbci r19,hi8(-(1))
 609               	.L37:
 610               	.LSM82:
 611 0012 8091 0000 		lds r24,RIGHT
 612 0016 9091 0000 		lds r25,(RIGHT)+1
 613 001a 892B      		or r24,r25
 614 001c 01F4      		brne .L38
 615 001e 8091 0000 		lds r24,LEFT
 616 0022 9091 0000 		lds r25,(LEFT)+1
 617 0026 892B      		or r24,r25
 618 0028 01F0      		breq .L39
 619               	.L38:
 620               	.LSM83:
 621 002a C901      		movw r24,r18
 622 002c 0E94 0000 		call srand
 623               	.LVL9:
 624               	.LSM84:
 625 0030 1BB8      		out 43-32,__zero_reg__
 626               	/* epilogue start */
 627               	.LSM85:
 628 0032 0895      		ret
 629               	.LFE12:
 631               		.section	.text.randInRange,"ax",@progbits
 632               	.global	randInRange
 634               	randInRange:
 635               	.LFB11:
 636               	.LSM86:
 637               	.LVL10:
 638 0000 EF92      		push r14
 639 0002 FF92      		push r15
 640 0004 0F93      		push r16
 641 0006 1F93      		push r17
 642               	/* prologue: function */
 643               	/* frame size = 0 */
 644 0008 8C01      		movw r16,r24
 645 000a 7B01      		movw r14,r22
 646               	.LSM87:
 647 000c 0E94 0000 		call rand
 648               	.LVL11:
 649 0010 E01A      		sub r14,r16
 650 0012 F10A      		sbc r15,r17
 651 0014 0894      		sec
 652 0016 E11C      		adc r14,__zero_reg__
 653 0018 F11C      		adc r15,__zero_reg__
 654 001a B701      		movw r22,r14
 655 001c 0E94 0000 		call __divmodhi4
 656 0020 9C01      		movw r18,r24
 657 0022 200F      		add r18,r16
 658 0024 311F      		adc r19,r17
 659               	.LSM88:
 660 0026 C901      		movw r24,r18
 661               	/* epilogue start */
 662 0028 1F91      		pop r17
 663 002a 0F91      		pop r16
 664               	.LVL12:
 665 002c FF90      		pop r15
 666 002e EF90      		pop r14
 667               	.LVL13:
 668 0030 0895      		ret
 669               	.LFE11:
 671               		.data
 672               	.LC2:
 673 0008 4761 6D65 		.string	"Game Start In: "
 673      2053 7461 
 673      7274 2049 
 673      6E3A 2000 
 674               		.section	.text.CountDown,"ax",@progbits
 675               	.global	CountDown
 677               	CountDown:
 678               	.LFB9:
 679               	.LSM89:
 680 0000 1F93      		push r17
 681 0002 CF93      		push r28
 682 0004 DF93      		push r29
 683               	/* prologue: function */
 684               	/* frame size = 0 */
 685               	.LSM90:
 686 0006 13E3      		ldi r17,lo8(51)
 687               	.LBB45:
 688               	.LBB46:
 689               	.LBB47:
 690               	.LBB48:
 691               	.LBB49:
 692               	.LSM91:
 693 0008 C0E9      		ldi r28,lo8(400)
 694 000a D1E0      		ldi r29,hi8(400)
 695               	.LVL14:
 696               	.L45:
 697               	.LBE49:
 698               	.LBE48:
 699               	.LBE47:
 700               	.LBE46:
 701               	.LSM92:
 702 000c 0E94 0000 		call clear
 703               	.LVL15:
 704               	.LSM93:
 705 0010 80E0      		ldi r24,lo8(.LC2)
 706 0012 90E0      		ldi r25,hi8(.LC2)
 707 0014 62E0      		ldi r22,lo8(2)
 708 0016 46E1      		ldi r20,lo8(22)
 709 0018 0E94 0000 		call draw_string
 710               	.LSM94:
 711 001c 812F      		mov r24,r17
 712 001e 6BE4      		ldi r22,lo8(75)
 713 0020 46E1      		ldi r20,lo8(22)
 714 0022 0E94 0000 		call draw_character
 715               	.LSM95:
 716 0026 0E94 0000 		call refresh
 717 002a 80E1      		ldi r24,lo8(10000)
 718 002c 97E2      		ldi r25,hi8(10000)
 719               	.LVL16:
 720               	.L44:
 721               	.LBB53:
 722               	.LBB52:
 723               	.LBB51:
 724               	.LBB50:
 725               	.LSM96:
 726 002e FE01      		movw r30,r28
 727               	.LVL17:
 728               	/* #APP */
 729               	 ;  105 "c:/winavr-20100110/lib/gcc/../../avr/include/util/delay_basic.h" 1
 730 0030 3197      		1: sbiw r30,1
 731 0032 01F4      		brne 1b
 732               	 ;  0 "" 2
 733               	/* #NOAPP */
 734               	.LBE50:
 735               	.LBE51:
 736               	.LSM97:
 737 0034 0197      		sbiw r24,1
 738               	.LSM98:
 739 0036 01F4      		brne .L44
 740 0038 1150      		subi r17,lo8(-(-1))
 741               	.LBE52:
 742               	.LBE53:
 743               	.LSM99:
 744 003a 1033      		cpi r17,lo8(48)
 745 003c 01F4      		brne .L45
 746               	/* epilogue start */
 747               	.LBE45:
 748               	.LSM100:
 749 003e DF91      		pop r29
 750 0040 CF91      		pop r28
 751 0042 1F91      		pop r17
 752 0044 0895      		ret
 753               	.LFE9:
 755               		.data
 756               	.LC3:
 757 0018 5A6F 6D62 		.string	"ZombieDash v1.0"
 757      6965 4461 
 757      7368 2076 
 757      312E 3000 
 758               	.LC4:
 759 0028 4C61 6368 		.string	"Lachlan Robinson"
 759      6C61 6E20 
 759      526F 6269 
 759      6E73 6F6E 
 759      00
 760               	.LC5:
 761 0039 6E38 3834 		.string	"n8845409"
 761      3534 3039 
 761      00
 762               		.section	.text.setupGame,"ax",@progbits
 763               	.global	setupGame
 765               	setupGame:
 766               	.LFB8:
 767               	.LSM101:
 768               	/* prologue: function */
 769               	/* frame size = 0 */
 770               	.LSM102:
 771 0000 84B1      		in r24,36-32
 772 0002 8C60      		ori r24,lo8(12)
 773 0004 84B9      		out 36-32,r24
 774               	.LSM103:
 775 0006 569A      		sbi 42-32,6
 776               	.LSM104:
 777 0008 8BB1      		in r24,43-32
 778 000a 8BB9      		out 43-32,r24
 779               	.LSM105:
 780 000c 289A      		sbi 37-32,0
 781               	.LSM106:
 782 000e E1E6      		ldi r30,lo8(97)
 783 0010 F0E0      		ldi r31,hi8(97)
 784 0012 80E8      		ldi r24,lo8(-128)
 785 0014 8083      		st Z,r24
 786 0016 1082      		st Z,__zero_reg__
 787               	.LSM107:
 788 0018 8FE3      		ldi r24,lo8(63)
 789 001a 0E94 0000 		call LCDInitialise
 790               	.LSM108:
 791 001e 0E94 0000 		call clear
 792               	.LSM109:
 793 0022 0E94 0000 		call PinChangeInit
 794               	.LSM110:
 795 0026 0E94 0000 		call TimerInit
 796               	.LSM111:
 797 002a 0E94 0000 		call clear
 798               	.LSM112:
 799 002e 80E0      		ldi r24,lo8(.LC3)
 800 0030 90E0      		ldi r25,hi8(.LC3)
 801 0032 64E0      		ldi r22,lo8(4)
 802 0034 40E0      		ldi r20,lo8(0)
 803 0036 0E94 0000 		call draw_string
 804               	.LSM113:
 805 003a 80E0      		ldi r24,lo8(.LC4)
 806 003c 90E0      		ldi r25,hi8(.LC4)
 807 003e 62E0      		ldi r22,lo8(2)
 808 0040 49E0      		ldi r20,lo8(9)
 809 0042 0E94 0000 		call draw_string
 810               	.LSM114:
 811 0046 80E0      		ldi r24,lo8(.LC5)
 812 0048 90E0      		ldi r25,hi8(.LC5)
 813 004a 66E1      		ldi r22,lo8(22)
 814 004c 4CE1      		ldi r20,lo8(28)
 815 004e 0E94 0000 		call draw_string
 816               	.LSM115:
 817 0052 0E94 0000 		call refresh
 818               	.LSM116:
 819 0056 0E94 0000 		call seedWithButtonPress
 820               	.LSM117:
 821 005a 0E94 0000 		call buttonCheck
 822               	.LSM118:
 823 005e 0E94 0000 		call CountDown
 824               	/* epilogue start */
 825               	.LSM119:
 826 0062 0895      		ret
 827               	.LFE8:
 829               		.section	.text.main,"ax",@progbits
 830               	.global	main
 832               	main:
 833               	.LFB7:
 834               	.LSM120:
 835 0000 2F92      		push r2
 836 0002 3F92      		push r3
 837 0004 4F92      		push r4
 838 0006 5F92      		push r5
 839 0008 6F92      		push r6
 840 000a 7F92      		push r7
 841 000c 8F92      		push r8
 842 000e 9F92      		push r9
 843 0010 AF92      		push r10
 844 0012 BF92      		push r11
 845 0014 CF92      		push r12
 846 0016 DF92      		push r13
 847 0018 EF92      		push r14
 848 001a FF92      		push r15
 849 001c 0F93      		push r16
 850 001e 1F93      		push r17
 851 0020 DF93      		push r29
 852 0022 CF93      		push r28
 853 0024 CDB7      		in r28,__SP_L__
 854 0026 DEB7      		in r29,__SP_H__
 855 0028 C35C      		subi r28,lo8(-(-195))
 856 002a D040      		sbci r29,hi8(-(-195))
 857 002c 0FB6      		in __tmp_reg__,__SREG__
 858 002e F894      		cli
 859 0030 DEBF      		out __SP_H__,r29
 860 0032 0FBE      		out __SREG__,__tmp_reg__
 861 0034 CDBF      		out __SP_L__,r28
 862               	/* prologue: function */
 863               	/* frame size = 195 */
 864               	.LSM121:
 865 0036 0E94 0000 		call setupGame
 866               	.LSM122:
 867 003a 0E94 0000 		call clear
 868               	.LSM123:
 869 003e 0E94 0000 		call refresh
 870               	.LSM124:
 871 0042 DE01      		movw r26,r28
 872 0044 1196      		adiw r26,1
 873 0046 E0E0      		ldi r30,lo8(C.0.1759)
 874 0048 F0E0      		ldi r31,hi8(C.0.1759)
 875 004a 83E0      		ldi r24,lo8(3)
 876               	.L52:
 877 004c 0190      		ld r0,Z+
 878 004e 0D92      		st X+,r0
 879 0050 8150      		subi r24,lo8(-(-1))
 880 0052 01F4      		brne .L52
 881               	.LSM125:
 882 0054 DE01      		movw r26,r28
 883 0056 1496      		adiw r26,4
 884 0058 E0E0      		ldi r30,lo8(C.1.1760)
 885 005a F0E0      		ldi r31,hi8(C.1.1760)
 886 005c 83E0      		ldi r24,lo8(3)
 887               	.L53:
 888 005e 0190      		ld r0,Z+
 889 0060 0D92      		st X+,r0
 890 0062 8150      		subi r24,lo8(-(-1))
 891 0064 01F4      		brne .L53
 892               	.LSM126:
 893 0066 E091 0000 		lds r30,width
 894 006a F0E0      		ldi r31,lo8(0)
 895 006c 8091 0000 		lds r24,screen_x
 896 0070 9091 0000 		lds r25,(screen_x)+1
 897 0074 8E1B      		sub r24,r30
 898 0076 9F0B      		sbc r25,r31
 899 0078 9093 0000 		sts (screen_x)+1,r25
 900 007c 8093 0000 		sts screen_x,r24
 901               	.LSM127:
 902 0080 4091 0000 		lds r20,height
 903 0084 2091 0000 		lds r18,screen_y
 904 0088 3091 0000 		lds r19,(screen_y)+1
 905 008c 241B      		sub r18,r20
 906 008e 3109      		sbc r19,__zero_reg__
 907 0090 3093 0000 		sts (screen_y)+1,r19
 908 0094 2093 0000 		sts screen_y,r18
 909               	.LSM128:
 910 0098 62E0      		ldi r22,lo8(2)
 911 009a 70E0      		ldi r23,hi8(2)
 912 009c 0E94 0000 		call __divmodhi4
 913 00a0 6B01      		movw r12,r22
 914               	.LVL18:
 915 00a2 CE1A      		sub r12,r30
 916 00a4 DF0A      		sbc r13,r31
 917               	.LSM129:
 918 00a6 C901      		movw r24,r18
 919 00a8 62E0      		ldi r22,lo8(2)
 920 00aa 70E0      		ldi r23,hi8(2)
 921 00ac 0E94 0000 		call __divmodhi4
 922 00b0 1B01      		movw r2,r22
 923               	.LBB54:
 924               	.LSM130:
 925 00b2 FCE1      		ldi r31,lo8(28)
 926 00b4 4F2E      		mov r4,r31
 927 00b6 512C      		mov r5,__zero_reg__
 928 00b8 4C0E      		add r4,r28
 929 00ba 5D1E      		adc r5,r29
 930 00bc 5092 0000 		sts (zombie)+1,r5
 931 00c0 4092 0000 		sts zombie,r4
 932               	.LSM131:
 933 00c4 E6EF      		ldi r30,lo8(-10)
 934 00c6 8E2E      		mov r8,r30
 935 00c8 EFEF      		ldi r30,hi8(-10)
 936 00ca 9E2E      		mov r9,r30
 937 00cc 8C0C      		add r8,r12
 938 00ce 9D1C      		adc r9,r13
 939 00d0 81E0      		ldi r24,lo8(1)
 940 00d2 90E0      		ldi r25,hi8(1)
 941 00d4 B401      		movw r22,r8
 942 00d6 0E94 0000 		call randInRange
 943 00da 182F      		mov r17,r24
 944               	.LSM132:
 945 00dc 6091 0000 		lds r22,screen_y
 946 00e0 7091 0000 		lds r23,(screen_y)+1
 947 00e4 6150      		subi r22,lo8(-(-1))
 948 00e6 7040      		sbci r23,hi8(-(-1))
 949 00e8 89E0      		ldi r24,lo8(9)
 950 00ea 90E0      		ldi r25,hi8(9)
 951 00ec 0E94 0000 		call randInRange
 952 00f0 482F      		mov r20,r24
 953               	.LSM133:
 954 00f2 74E0      		ldi r23,lo8(4)
 955 00f4 A72E      		mov r10,r23
 956 00f6 B12C      		mov r11,__zero_reg__
 957 00f8 AC0E      		add r10,r28
 958 00fa BD1E      		adc r11,r29
 959 00fc 8091 0000 		lds r24,zombie
 960 0100 9091 0000 		lds r25,(zombie)+1
 961 0104 612F      		mov r22,r17
 962 0106 2091 0000 		lds r18,width
 963 010a 0091 0000 		lds r16,height
 964 010e 7501      		movw r14,r10
 965 0110 0E94 0000 		call init_sprite
 966               	.LSM134:
 967 0114 61E3      		ldi r22,lo8(49)
 968 0116 662E      		mov r6,r22
 969 0118 712C      		mov r7,__zero_reg__
 970 011a 6C0E      		add r6,r28
 971 011c 7D1E      		adc r7,r29
 972 011e 7092 0000 		sts (zombie+2)+1,r7
 973 0122 6092 0000 		sts zombie+2,r6
 974               	.LSM135:
 975 0126 81E0      		ldi r24,lo8(1)
 976 0128 90E0      		ldi r25,hi8(1)
 977 012a B401      		movw r22,r8
 978 012c 0E94 0000 		call randInRange
 979 0130 182F      		mov r17,r24
 980               	.LSM136:
 981 0132 6091 0000 		lds r22,screen_y
 982 0136 7091 0000 		lds r23,(screen_y)+1
 983 013a 6150      		subi r22,lo8(-(-1))
 984 013c 7040      		sbci r23,hi8(-(-1))
 985 013e 89E0      		ldi r24,lo8(9)
 986 0140 90E0      		ldi r25,hi8(9)
 987 0142 0E94 0000 		call randInRange
 988 0146 482F      		mov r20,r24
 989               	.LSM137:
 990 0148 8091 0000 		lds r24,zombie+2
 991 014c 9091 0000 		lds r25,(zombie+2)+1
 992 0150 612F      		mov r22,r17
 993 0152 2091 0000 		lds r18,width
 994 0156 0091 0000 		lds r16,height
 995 015a 0E94 0000 		call init_sprite
 996               	.LBE54:
 997               	.LBB55:
 998               	.LSM138:
 999 015e 5092 0000 		sts (zombie)+1,r5
 1000 0162 4092 0000 		sts zombie,r4
 1001               	.LSM139:
 1002 0166 8AE0      		ldi r24,lo8(10)
 1003 0168 90E0      		ldi r25,hi8(10)
 1004 016a C80E      		add r12,r24
 1005 016c D91E      		adc r13,r25
 1006               	.LVL19:
 1007 016e 6091 0000 		lds r22,screen_x
 1008 0172 7091 0000 		lds r23,(screen_x)+1
 1009 0176 C601      		movw r24,r12
 1010 0178 0E94 0000 		call randInRange
 1011 017c 182F      		mov r17,r24
 1012               	.LSM140:
 1013 017e 6091 0000 		lds r22,screen_y
 1014 0182 7091 0000 		lds r23,(screen_y)+1
 1015 0186 6150      		subi r22,lo8(-(-1))
 1016 0188 7040      		sbci r23,hi8(-(-1))
 1017 018a 89E0      		ldi r24,lo8(9)
 1018 018c 90E0      		ldi r25,hi8(9)
 1019 018e 0E94 0000 		call randInRange
 1020 0192 482F      		mov r20,r24
 1021               	.LSM141:
 1022 0194 8091 0000 		lds r24,zombie+4
 1023 0198 9091 0000 		lds r25,(zombie+4)+1
 1024 019c 612F      		mov r22,r17
 1025 019e 2091 0000 		lds r18,width
 1026 01a2 0091 0000 		lds r16,height
 1027 01a6 0E94 0000 		call init_sprite
 1028               	.LSM142:
 1029 01aa 7092 0000 		sts (zombie+2)+1,r7
 1030 01ae 6092 0000 		sts zombie+2,r6
 1031               	.LSM143:
 1032 01b2 6091 0000 		lds r22,screen_x
 1033 01b6 7091 0000 		lds r23,(screen_x)+1
 1034 01ba C601      		movw r24,r12
 1035 01bc 0E94 0000 		call randInRange
 1036 01c0 182F      		mov r17,r24
 1037               	.LSM144:
 1038 01c2 6091 0000 		lds r22,screen_y
 1039 01c6 7091 0000 		lds r23,(screen_y)+1
 1040 01ca 6150      		subi r22,lo8(-(-1))
 1041 01cc 7040      		sbci r23,hi8(-(-1))
 1042 01ce 89E0      		ldi r24,lo8(9)
 1043 01d0 90E0      		ldi r25,hi8(9)
 1044 01d2 0E94 0000 		call randInRange
 1045 01d6 482F      		mov r20,r24
 1046               	.LSM145:
 1047 01d8 8091 0000 		lds r24,zombie+6
 1048 01dc 9091 0000 		lds r25,(zombie+6)+1
 1049 01e0 612F      		mov r22,r17
 1050 01e2 2091 0000 		lds r18,width
 1051 01e6 0091 0000 		lds r16,height
 1052 01ea 0E94 0000 		call init_sprite
 1053               	.LBE55:
 1054               	.LBB56:
 1055               	.LSM146:
 1056 01ee 5092 0000 		sts (zombie)+1,r5
 1057 01f2 4092 0000 		sts zombie,r4
 1058               	.LSM147:
 1059 01f6 6091 0000 		lds r22,screen_x
 1060 01fa 7091 0000 		lds r23,(screen_x)+1
 1061 01fe 81E0      		ldi r24,lo8(1)
 1062 0200 90E0      		ldi r25,hi8(1)
 1063 0202 0E94 0000 		call randInRange
 1064 0206 182F      		mov r17,r24
 1065               	.LSM148:
 1066 0208 5AEF      		ldi r21,lo8(-6)
 1067 020a C52E      		mov r12,r21
 1068 020c 5FEF      		ldi r21,hi8(-6)
 1069 020e D52E      		mov r13,r21
 1070 0210 C20C      		add r12,r2
 1071 0212 D31C      		adc r13,r3
 1072 0214 89E0      		ldi r24,lo8(9)
 1073 0216 90E0      		ldi r25,hi8(9)
 1074 0218 B601      		movw r22,r12
 1075 021a 0E94 0000 		call randInRange
 1076 021e 482F      		mov r20,r24
 1077               	.LSM149:
 1078 0220 8091 0000 		lds r24,zombie+8
 1079 0224 9091 0000 		lds r25,(zombie+8)+1
 1080 0228 612F      		mov r22,r17
 1081 022a 2091 0000 		lds r18,width
 1082 022e 0091 0000 		lds r16,height
 1083 0232 0E94 0000 		call init_sprite
 1084               	.LSM150:
 1085 0236 7092 0000 		sts (zombie+2)+1,r7
 1086 023a 6092 0000 		sts zombie+2,r6
 1087               	.LSM151:
 1088 023e 6091 0000 		lds r22,screen_x
 1089 0242 7091 0000 		lds r23,(screen_x)+1
 1090 0246 81E0      		ldi r24,lo8(1)
 1091 0248 90E0      		ldi r25,hi8(1)
 1092 024a 0E94 0000 		call randInRange
 1093 024e 182F      		mov r17,r24
 1094               	.LSM152:
 1095 0250 89E0      		ldi r24,lo8(9)
 1096 0252 90E0      		ldi r25,hi8(9)
 1097 0254 B601      		movw r22,r12
 1098 0256 0E94 0000 		call randInRange
 1099 025a 482F      		mov r20,r24
 1100               	.LSM153:
 1101 025c 8091 0000 		lds r24,zombie+10
 1102 0260 9091 0000 		lds r25,(zombie+10)+1
 1103 0264 612F      		mov r22,r17
 1104 0266 2091 0000 		lds r18,width
 1105 026a 0091 0000 		lds r16,height
 1106 026e 0E94 0000 		call init_sprite
 1107               	.LBE56:
 1108               	.LBB57:
 1109               	.LSM154:
 1110 0272 5092 0000 		sts (zombie)+1,r5
 1111 0276 4092 0000 		sts zombie,r4
 1112               	.LSM155:
 1113 027a 6091 0000 		lds r22,screen_x
 1114 027e 7091 0000 		lds r23,(screen_x)+1
 1115 0282 81E0      		ldi r24,lo8(1)
 1116 0284 90E0      		ldi r25,hi8(1)
 1117 0286 0E94 0000 		call randInRange
 1118 028a 182F      		mov r17,r24
 1119               	.LSM156:
 1120 028c EEE0      		ldi r30,lo8(14)
 1121 028e F0E0      		ldi r31,hi8(14)
 1122 0290 2E0E      		add r2,r30
 1123 0292 3F1E      		adc r3,r31
 1124 0294 6091 0000 		lds r22,screen_y
 1125 0298 7091 0000 		lds r23,(screen_y)+1
 1126 029c C101      		movw r24,r2
 1127 029e 0E94 0000 		call randInRange
 1128 02a2 482F      		mov r20,r24
 1129               	.LSM157:
 1130 02a4 8091 0000 		lds r24,zombie+12
 1131 02a8 9091 0000 		lds r25,(zombie+12)+1
 1132 02ac 612F      		mov r22,r17
 1133 02ae 2091 0000 		lds r18,width
 1134 02b2 0091 0000 		lds r16,height
 1135 02b6 0E94 0000 		call init_sprite
 1136               	.LSM158:
 1137 02ba 7092 0000 		sts (zombie+2)+1,r7
 1138 02be 6092 0000 		sts zombie+2,r6
 1139               	.LSM159:
 1140 02c2 6091 0000 		lds r22,screen_x
 1141 02c6 7091 0000 		lds r23,(screen_x)+1
 1142 02ca 81E0      		ldi r24,lo8(1)
 1143 02cc 90E0      		ldi r25,hi8(1)
 1144 02ce 0E94 0000 		call randInRange
 1145 02d2 182F      		mov r17,r24
 1146               	.LSM160:
 1147 02d4 6091 0000 		lds r22,screen_y
 1148 02d8 7091 0000 		lds r23,(screen_y)+1
 1149 02dc C101      		movw r24,r2
 1150 02de 0E94 0000 		call randInRange
 1151 02e2 482F      		mov r20,r24
 1152               	.LSM161:
 1153 02e4 8091 0000 		lds r24,zombie+14
 1154 02e8 9091 0000 		lds r25,(zombie+14)+1
 1155 02ec 612F      		mov r22,r17
 1156 02ee 2091 0000 		lds r18,width
 1157 02f2 0091 0000 		lds r16,height
 1158 02f6 0E94 0000 		call init_sprite
 1159               	.LBE57:
 1160               	.LSM162:
 1161 02fa 2091 0000 		lds r18,width
 1162 02fe 8091 0000 		lds r24,screen_x
 1163 0302 9091 0000 		lds r25,(screen_x)+1
 1164 0306 62E0      		ldi r22,lo8(2)
 1165 0308 70E0      		ldi r23,hi8(2)
 1166 030a 0E94 0000 		call __divmodhi4
 1167 030e 362F      		mov r19,r22
 1168 0310 321B      		sub r19,r18
 1169               	.LSM163:
 1170 0312 8091 0000 		lds r24,screen_y
 1171 0316 9091 0000 		lds r25,(screen_y)+1
 1172 031a 62E0      		ldi r22,lo8(2)
 1173 031c 70E0      		ldi r23,hi8(2)
 1174 031e 0E94 0000 		call __divmodhi4
 1175 0322 462F      		mov r20,r22
 1176 0324 4C5F      		subi r20,lo8(-(4))
 1177               	.LSM164:
 1178 0326 CE01      		movw r24,r28
 1179 0328 0796      		adiw r24,7
 1180 032a 9093 0000 		sts (my_pointer)+1,r25
 1181 032e 8093 0000 		sts my_pointer,r24
 1182               	.LSM165:
 1183 0332 632F      		mov r22,r19
 1184 0334 0091 0000 		lds r16,height
 1185 0338 7E01      		movw r14,r28
 1186 033a 0894      		sec
 1187 033c E11C      		adc r14,__zero_reg__
 1188 033e F11C      		adc r15,__zero_reg__
 1189 0340 0E94 0000 		call init_sprite
 1190               	.LSM166:
 1191 0344 8091 0000 		lds r24,my_pointer
 1192 0348 9091 0000 		lds r25,(my_pointer)+1
 1193 034c 0E94 0000 		call draw_sprite
 1194 0350 00E0      		ldi r16,lo8(zombie)
 1195 0352 10E0      		ldi r17,hi8(zombie)
 1196               	.L54:
 1197               	.LBB58:
 1198               	.LSM167:
 1199 0354 F801      		movw r30,r16
 1200 0356 8191      		ld r24,Z+
 1201 0358 9191      		ld r25,Z+
 1202 035a 8F01      		movw r16,r30
 1203 035c 0E94 0000 		call draw_sprite
 1204               	.LSM168:
 1205 0360 F0E0      		ldi r31,hi8(zombie+16)
 1206 0362 0030      		cpi r16,lo8(zombie+16)
 1207 0364 1F07      		cpc r17,r31
 1208 0366 01F4      		brne .L54
 1209               	.LBE58:
 1210               	.LSM169:
 1211 0368 0E94 0000 		call refresh
 1212 036c 88EE      		ldi r24,lo8(1000)
 1213 036e 93E0      		ldi r25,hi8(1000)
 1214               	.LVL20:
 1215               	.LBB59:
 1216               	.LBB60:
 1217               	.LBB61:
 1218               	.LBB62:
 1219               	.LSM170:
 1220 0370 20E9      		ldi r18,lo8(400)
 1221 0372 31E0      		ldi r19,hi8(400)
 1222               	.L55:
 1223 0374 F901      		movw r30,r18
 1224               	.LVL21:
 1225               	/* #APP */
 1226               	 ;  105 "c:/winavr-20100110/lib/gcc/../../avr/include/util/delay_basic.h" 1
 1227 0376 3197      		1: sbiw r30,1
 1228 0378 01F4      		brne 1b
 1229               	 ;  0 "" 2
 1230               	/* #NOAPP */
 1231               	.LBE62:
 1232               	.LBE61:
 1233               	.LSM171:
 1234 037a 0197      		sbiw r24,1
 1235               	.LSM172:
 1236 037c 01F4      		brne .L55
 1237               	.LBE60:
 1238               	.LBE59:
 1239               	.LSM173:
 1240 037e 81E0      		ldi r24,lo8(1)
 1241 0380 90E0      		ldi r25,hi8(1)
 1242               	.LVL22:
 1243 0382 9093 0000 		sts (GAMEON)+1,r25
 1244 0386 8093 0000 		sts GAMEON,r24
 1245 038a 41E0      		ldi r20,lo8(1)
 1246 038c E42E      		mov r14,r20
 1247 038e F12C      		mov r15,__zero_reg__
 1248               	.LVL23:
 1249 0390 31E0      		ldi r19,lo8(1)
 1250 0392 C32E      		mov r12,r19
 1251 0394 D12C      		mov r13,__zero_reg__
 1252               	.LVL24:
 1253               	.LSM174:
 1254 0396 23E0      		ldi r18,lo8(3)
 1255 0398 A22E      		mov r10,r18
 1256 039a B12C      		mov r11,__zero_reg__
 1257               	.L62:
 1258               	.LSM175:
 1259 039c 0E94 0000 		call clear
 1260               	.LVL25:
 1261               	.LSM176:
 1262 03a0 8091 0000 		lds r24,RIGHT
 1263 03a4 9091 0000 		lds r25,(RIGHT)+1
 1264 03a8 892B      		or r24,r25
 1265 03aa 01F4      		brne .L56
 1266 03ac 91E0      		ldi r25,lo8(1)
 1267 03ae E92E      		mov r14,r25
 1268 03b0 F12C      		mov r15,__zero_reg__
 1269               	.L56:
 1270               	.LSM177:
 1271 03b2 8091 0000 		lds r24,LEFT
 1272 03b6 9091 0000 		lds r25,(LEFT)+1
 1273 03ba 892B      		or r24,r25
 1274 03bc 01F4      		brne .L57
 1275 03be 81E0      		ldi r24,lo8(1)
 1276 03c0 C82E      		mov r12,r24
 1277 03c2 D12C      		mov r13,__zero_reg__
 1278               	.L57:
 1279               	.LSM178:
 1280 03c4 8091 0000 		lds r24,RIGHT
 1281 03c8 9091 0000 		lds r25,(RIGHT)+1
 1282 03cc 892B      		or r24,r25
 1283 03ce 01F0      		breq .L58
 1284 03d0 E114      		cp r14,__zero_reg__
 1285 03d2 F104      		cpc r15,__zero_reg__
 1286 03d4 01F0      		breq .L58
 1287               	.LSM179:
 1288 03d6 8091 0000 		lds r24,Direction
 1289 03da 9091 0000 		lds r25,(Direction)+1
 1290 03de 0197      		sbiw r24,1
 1291 03e0 9093 0000 		sts (Direction)+1,r25
 1292 03e4 8093 0000 		sts Direction,r24
 1293               	.LSM180:
 1294 03e8 8091 0000 		lds r24,Direction
 1295 03ec 9091 0000 		lds r25,(Direction)+1
 1296 03f0 97FF      		sbrs r25,7
 1297 03f2 00C0      		rjmp .L69
 1298               	.L59:
 1299               	.LSM181:
 1300 03f4 B092 0000 		sts (Direction)+1,r11
 1301 03f8 A092 0000 		sts Direction,r10
 1302               	.L69:
 1303 03fc EE24      		clr r14
 1304 03fe FF24      		clr r15
 1305               	.L58:
 1306               	.LSM182:
 1307 0400 8091 0000 		lds r24,LEFT
 1308 0404 9091 0000 		lds r25,(LEFT)+1
 1309 0408 8C21      		and r24,r12
 1310 040a 9D21      		and r25,r13
 1311 040c 892B      		or r24,r25
 1312 040e 01F0      		breq .L60
 1313               	.LSM183:
 1314 0410 8091 0000 		lds r24,Direction
 1315 0414 9091 0000 		lds r25,(Direction)+1
 1316 0418 0196      		adiw r24,1
 1317 041a 64E0      		ldi r22,lo8(4)
 1318 041c 70E0      		ldi r23,hi8(4)
 1319 041e 0E94 0000 		call __divmodhi4
 1320 0422 9093 0000 		sts (Direction)+1,r25
 1321 0426 8093 0000 		sts Direction,r24
 1322 042a CC24      		clr r12
 1323 042c DD24      		clr r13
 1324               	.L60:
 1325               	.LSM184:
 1326 042e 8091 0000 		lds r24,my_pointer
 1327 0432 9091 0000 		lds r25,(my_pointer)+1
 1328 0436 0E94 0000 		call draw_sprite
 1329 043a 00E0      		ldi r16,lo8(zombie)
 1330 043c 10E0      		ldi r17,hi8(zombie)
 1331               	.L61:
 1332               	.LBB63:
 1333               	.LSM185:
 1334 043e F801      		movw r30,r16
 1335 0440 8191      		ld r24,Z+
 1336 0442 9191      		ld r25,Z+
 1337 0444 8F01      		movw r16,r30
 1338 0446 0E94 0000 		call draw_sprite
 1339               	.LSM186:
 1340 044a F0E0      		ldi r31,hi8(zombie+16)
 1341 044c 0030      		cpi r16,lo8(zombie+16)
 1342 044e 1F07      		cpc r17,r31
 1343 0450 01F4      		brne .L61
 1344               	.LBE63:
 1345               	.LSM187:
 1346 0452 0E94 0000 		call drawScreen
 1347               	.LSM188:
 1348 0456 0E94 0000 		call refresh
 1349 045a 00C0      		rjmp .L62
 1350               	.LFE7:
 1352               	.global	LEFT
 1353               	.global	LEFT
 1354               		.section .bss
 1357               	LEFT:
 1358 0000 0000      		.skip 2,0
 1359               	.global	RIGHT
 1360               	.global	RIGHT
 1363               	RIGHT:
 1364 0002 0000      		.skip 2,0
 1365               	.global	screen_x
 1366               		.data
 1369               	screen_x:
 1370 0042 5300      		.word	83
 1371               	.global	screen_x_Full
 1374               	screen_x_Full:
 1375 0044 5300      		.word	83
 1376               	.global	screen_y
 1379               	screen_y:
 1380 0046 2F00      		.word	47
 1381               	.global	screen_y_Full
 1384               	screen_y_Full:
 1385 0048 2F00      		.word	47
 1386               	.global	charWidth
 1389               	charWidth:
 1390 004a 0800      		.word	8
 1391               	.global	charHeight
 1394               	charHeight:
 1395 004c 0800      		.word	8
 1396               	.global	previousLEFT
 1397               	.global	previousLEFT
 1398               		.section .bss
 1401               	previousLEFT:
 1402 0004 0000      		.skip 2,0
 1403               	.global	previousRIGHT
 1404               	.global	previousRIGHT
 1407               	previousRIGHT:
 1408 0006 0000      		.skip 2,0
 1409               	.global	buttonPressed
 1410               	.global	buttonPressed
 1413               	buttonPressed:
 1414 0008 0000      		.skip 2,0
 1415               	.global	previousButton
 1416               	.global	previousButton
 1419               	previousButton:
 1420 000a 0000      		.skip 2,0
 1421               	.global	Direction
 1422               		.data
 1425               	Direction:
 1426 004e 0100      		.word	1
 1427               	.global	clockCounter
 1428               	.global	clockCounter
 1429               		.section .bss
 1432               	clockCounter:
 1433 000c 0000      		.skip 2,0
 1434               	.global	GAMEON
 1435               	.global	GAMEON
 1438               	GAMEON:
 1439 000e 0000      		.skip 2,0
 1440               	.global	HeroX
 1441               		.data
 1444               	HeroX:
 1445 0050 0100      		.word	1
 1446               	.global	HeroY
 1447               	.global	HeroY
 1448               		.section .bss
 1451               	HeroY:
 1452 0010 0000      		.skip 2,0
 1453               	.global	width
 1454               		.data
 1457               	width:
 1458 0052 03        		.byte	3
 1459               	.global	height
 1462               	height:
 1463 0053 03        		.byte	3
 1464               	.global	Lives
 1467               	Lives:
 1468 0054 0300      		.word	3
 1469               	.global	Score
 1470               	.global	Score
 1471               		.section .bss
 1474               	Score:
 1475 0012 0000      		.skip 2,0
 1476               		.data
 1479               	C.1.1760:
 1480 0056 E0        		.byte	-32
 1481 0057 40        		.byte	64
 1482 0058 E0        		.byte	-32
 1485               	C.0.1759:
 1486 0059 A0        		.byte	-96
 1487 005a E0        		.byte	-32
 1488 005b A0        		.byte	-96
 1489               		.comm my_pointer,2,1
 1490               		.comm my_pointer2,2,1
 1491               		.comm zombie,16,1
 1604               	.Letext0:
DEFINED SYMBOLS
                            *ABS*:00000000 solution.c
C:\cygwin\tmp/ccm235sd.s:2      *ABS*:0000003f __SREG__
C:\cygwin\tmp/ccm235sd.s:3      *ABS*:0000003e __SP_H__
C:\cygwin\tmp/ccm235sd.s:4      *ABS*:0000003d __SP_L__
C:\cygwin\tmp/ccm235sd.s:5      *ABS*:00000034 __CCP__
C:\cygwin\tmp/ccm235sd.s:6      *ABS*:00000000 __tmp_reg__
C:\cygwin\tmp/ccm235sd.s:7      *ABS*:00000001 __zero_reg__
C:\cygwin\tmp/ccm235sd.s:19     .text.buttonCheck:00000000 buttonCheck
C:\cygwin\tmp/ccm235sd.s:1363   .bss:00000002 RIGHT
C:\cygwin\tmp/ccm235sd.s:1357   .bss:00000000 LEFT
C:\cygwin\tmp/ccm235sd.s:117    .text.PinChangeInit:00000000 PinChangeInit
C:\cygwin\tmp/ccm235sd.s:158    .text.__vector_9:00000000 __vector_9
C:\cygwin\tmp/ccm235sd.s:207    .text.TimerInit:00000000 TimerInit
C:\cygwin\tmp/ccm235sd.s:248    .text.heroForward:00000000 heroForward
C:\cygwin\tmp/ccm235sd.s:1425   .data:0000004e Direction
C:\cygwin\tmp/ccm235sd.s:1451   .bss:00000010 HeroY
C:\cygwin\tmp/ccm235sd.s:1444   .data:00000050 HeroX
                            *COM*:00000002 my_pointer
C:\cygwin\tmp/ccm235sd.s:1379   .data:00000046 screen_y
C:\cygwin\tmp/ccm235sd.s:1369   .data:00000042 screen_x
C:\cygwin\tmp/ccm235sd.s:448    .text.__vector_23:00000000 __vector_23
C:\cygwin\tmp/ccm235sd.s:1432   .bss:0000000c clockCounter
C:\cygwin\tmp/ccm235sd.s:1438   .bss:0000000e GAMEON
C:\cygwin\tmp/ccm235sd.s:522    .text.drawScreen:00000000 drawScreen
C:\cygwin\tmp/ccm235sd.s:1374   .data:00000044 screen_x_Full
C:\cygwin\tmp/ccm235sd.s:1384   .data:00000048 screen_y_Full
C:\cygwin\tmp/ccm235sd.s:1467   .data:00000054 Lives
C:\cygwin\tmp/ccm235sd.s:1474   .bss:00000012 Score
C:\cygwin\tmp/ccm235sd.s:590    .text.seedWithButtonPress:00000000 seedWithButtonPress
C:\cygwin\tmp/ccm235sd.s:634    .text.randInRange:00000000 randInRange
C:\cygwin\tmp/ccm235sd.s:677    .text.CountDown:00000000 CountDown
C:\cygwin\tmp/ccm235sd.s:765    .text.setupGame:00000000 setupGame
C:\cygwin\tmp/ccm235sd.s:832    .text.main:00000000 main
C:\cygwin\tmp/ccm235sd.s:1485   .data:00000059 C.0.1759
C:\cygwin\tmp/ccm235sd.s:1479   .data:00000056 C.1.1760
C:\cygwin\tmp/ccm235sd.s:1457   .data:00000052 width
C:\cygwin\tmp/ccm235sd.s:1462   .data:00000053 height
                            *COM*:00000010 zombie
C:\cygwin\tmp/ccm235sd.s:1389   .data:0000004a charWidth
C:\cygwin\tmp/ccm235sd.s:1394   .data:0000004c charHeight
C:\cygwin\tmp/ccm235sd.s:1401   .bss:00000004 previousLEFT
C:\cygwin\tmp/ccm235sd.s:1407   .bss:00000006 previousRIGHT
C:\cygwin\tmp/ccm235sd.s:1413   .bss:00000008 buttonPressed
C:\cygwin\tmp/ccm235sd.s:1419   .bss:0000000a previousButton
                            *COM*:00000002 my_pointer2

UNDEFINED SYMBOLS
__floatsisf
__gtsf2
__ltsf2
__addsf3
draw_line
draw_string
draw_character
srand
rand
__divmodhi4
clear
refresh
LCDInitialise
init_sprite
draw_sprite
__do_copy_data
__do_clear_bss
