   1               		.file	"solution.c"
   2               	__SREG__ = 0x3f
   3               	__SP_H__ = 0x3e
   4               	__SP_L__ = 0x3d
   5               	__CCP__  = 0x34
   6               	__tmp_reg__ = 0
   7               	__zero_reg__ = 1
  15               	.Ltext0:
  16               		.section	.text.buttonCheck,"ax",@progbits
  17               	.global	buttonCheck
  19               	buttonCheck:
  20               	.LFB10:
  21               	.LSM0:
  22               	/* prologue: function */
  23               	/* frame size = 0 */
  24               	.LSM1:
  25 0000 1092 0000 		sts (RIGHT)+1,__zero_reg__
  26 0004 1092 0000 		sts RIGHT,__zero_reg__
  27 0008 1092 0000 		sts (LEFT)+1,__zero_reg__
  28 000c 1092 0000 		sts LEFT,__zero_reg__
  29               	.LSM2:
  30 0010 199B      		sbis 35-32,1
  31 0012 00C0      		rjmp .L2
  32 0014 84EF      		ldi r24,lo8(500)
  33 0016 91E0      		ldi r25,hi8(500)
  34               	.LVL0:
  35               	.LBB41:
  36               	.LBB42:
  37               	.LBB43:
  38               	.LBB44:
  39               	.LSM3:
  40 0018 20E9      		ldi r18,lo8(400)
  41 001a 31E0      		ldi r19,hi8(400)
  42               	.L3:
  43 001c F901      		movw r30,r18
  44               	.LVL1:
  45               	/* #APP */
  46               	 ;  105 "c:/winavr-20100110/lib/gcc/../../avr/include/util/delay_basic.h" 1
  47 001e 3197      		1: sbiw r30,1
  48 0020 01F4      		brne 1b
  49               	 ;  0 "" 2
  50               	/* #NOAPP */
  51               	.LBE44:
  52               	.LBE43:
  53               	.LSM4:
  54 0022 0197      		sbiw r24,1
  55               	.LSM5:
  56 0024 01F4      		brne .L3
  57               	.LBE42:
  58               	.LBE41:
  59               	.LSM6:
  60 0026 199B      		sbis 35-32,1
  61 0028 00C0      		rjmp .L2
  62               	.LSM7:
  63 002a 81E0      		ldi r24,lo8(1)
  64 002c 90E0      		ldi r25,hi8(1)
  65               	.LVL2:
  66 002e 9093 0000 		sts (RIGHT)+1,r25
  67 0032 8093 0000 		sts RIGHT,r24
  68               	.LVL3:
  69               	.L2:
  70               	.LSM8:
  71 0036 189B      		sbis 35-32,0
  72 0038 00C0      		rjmp .L6
  73 003a 84EF      		ldi r24,lo8(500)
  74 003c 91E0      		ldi r25,hi8(500)
  75               	.LVL4:
  76               	.LBB45:
  77               	.LBB46:
  78               	.LBB47:
  79               	.LBB48:
  80               	.LSM9:
  81 003e 20E9      		ldi r18,lo8(400)
  82 0040 31E0      		ldi r19,hi8(400)
  83               	.L5:
  84 0042 F901      		movw r30,r18
  85               	.LVL5:
  86               	/* #APP */
  87               	 ;  105 "c:/winavr-20100110/lib/gcc/../../avr/include/util/delay_basic.h" 1
  88 0044 3197      		1: sbiw r30,1
  89 0046 01F4      		brne 1b
  90               	 ;  0 "" 2
  91               	/* #NOAPP */
  92               	.LBE48:
  93               	.LBE47:
  94               	.LSM10:
  95 0048 0197      		sbiw r24,1
  96               	.LSM11:
  97 004a 01F4      		brne .L5
  98               	.LBE46:
  99               	.LBE45:
 100               	.LSM12:
 101 004c 189B      		sbis 35-32,0
 102 004e 00C0      		rjmp .L6
 103               	.LSM13:
 104 0050 81E0      		ldi r24,lo8(1)
 105 0052 90E0      		ldi r25,hi8(1)
 106               	.LVL6:
 107 0054 9093 0000 		sts (LEFT)+1,r25
 108 0058 8093 0000 		sts LEFT,r24
 109               	.LVL7:
 110               	.L6:
 111 005c 0895      		ret
 112               	.LFE10:
 114               		.section	.text.PinChangeInit,"ax",@progbits
 115               	.global	PinChangeInit
 117               	PinChangeInit:
 118               	.LFB13:
 119               	.LSM14:
 120               	/* prologue: function */
 121               	/* frame size = 0 */
 122               	.LSM15:
 123 0000 EBE6      		ldi r30,lo8(107)
 124 0002 F0E0      		ldi r31,hi8(107)
 125 0004 8081      		ld r24,Z
 126 0006 8160      		ori r24,lo8(1)
 127 0008 8083      		st Z,r24
 128               	.LSM16:
 129 000a 8081      		ld r24,Z
 130 000c 8260      		ori r24,lo8(2)
 131 000e 8083      		st Z,r24
 132               	.LSM17:
 133 0010 E8E6      		ldi r30,lo8(104)
 134 0012 F0E0      		ldi r31,hi8(104)
 135 0014 8081      		ld r24,Z
 136 0016 8160      		ori r24,lo8(1)
 137 0018 8083      		st Z,r24
 138               	.LSM18:
 139 001a E9E6      		ldi r30,lo8(105)
 140 001c F0E0      		ldi r31,hi8(105)
 141 001e 8081      		ld r24,Z
 142 0020 8160      		ori r24,lo8(1)
 143 0022 8083      		st Z,r24
 144               	.LSM19:
 145               	/* #APP */
 146               	 ;  311 "solution.c" 1
 147 0024 7894      		sei
 148               	 ;  0 "" 2
 149               	/* epilogue start */
 150               	.LSM20:
 151               	/* #NOAPP */
 152 0026 0895      		ret
 153               	.LFE13:
 155               		.section	.text.__vector_9,"ax",@progbits
 156               	.global	__vector_9
 158               	__vector_9:
 159               	.LFB14:
 160               	.LSM21:
 161 0000 1F92      		push __zero_reg__
 162 0002 0F92      		push r0
 163 0004 0FB6      		in r0,__SREG__
 164 0006 0F92      		push r0
 165 0008 1124      		clr __zero_reg__
 166 000a 8F93      		push r24
 167 000c 9F93      		push r25
 168               	/* prologue: Signal */
 169               	/* frame size = 0 */
 170               	.LSM22:
 171 000e 1092 0000 		sts (RIGHT)+1,__zero_reg__
 172 0012 1092 0000 		sts RIGHT,__zero_reg__
 173 0016 1092 0000 		sts (LEFT)+1,__zero_reg__
 174 001a 1092 0000 		sts LEFT,__zero_reg__
 175               	.LSM23:
 176 001e 199B      		sbis 35-32,1
 177 0020 00C0      		rjmp .L12
 178               	.LSM24:
 179 0022 81E0      		ldi r24,lo8(1)
 180 0024 90E0      		ldi r25,hi8(1)
 181 0026 9093 0000 		sts (RIGHT)+1,r25
 182 002a 8093 0000 		sts RIGHT,r24
 183               	.L12:
 184               	.LSM25:
 185 002e 189B      		sbis 35-32,0
 186 0030 00C0      		rjmp .L14
 187               	.LSM26:
 188 0032 81E0      		ldi r24,lo8(1)
 189 0034 90E0      		ldi r25,hi8(1)
 190 0036 9093 0000 		sts (LEFT)+1,r25
 191 003a 8093 0000 		sts LEFT,r24
 192               	.L14:
 193               	/* epilogue start */
 194               	.LSM27:
 195 003e 9F91      		pop r25
 196 0040 8F91      		pop r24
 197 0042 0F90      		pop r0
 198 0044 0FBE      		out __SREG__,r0
 199 0046 0F90      		pop r0
 200 0048 1F90      		pop __zero_reg__
 201 004a 1895      		reti
 202               	.LFE14:
 204               		.section	.text.TimerInit,"ax",@progbits
 205               	.global	TimerInit
 207               	TimerInit:
 208               	.LFB15:
 209               	.LSM28:
 210               	/* prologue: function */
 211               	/* frame size = 0 */
 212               	.LSM29:
 213 0000 84B5      		in r24,68-32
 214 0002 8D7F      		andi r24,lo8(-3)
 215 0004 84BD      		out 68-32,r24
 216               	.LSM30:
 217 0006 85B5      		in r24,69-32
 218 0008 877F      		andi r24,lo8(-9)
 219 000a 85BD      		out 69-32,r24
 220               	.LSM31:
 221 000c 85B5      		in r24,69-32
 222 000e 8560      		ori r24,lo8(5)
 223 0010 85BD      		out 69-32,r24
 224               	.LSM32:
 225 0012 85B5      		in r24,69-32
 226 0014 8D7F      		andi r24,lo8(-3)
 227 0016 85BD      		out 69-32,r24
 228               	.LSM33:
 229 0018 EEE6      		ldi r30,lo8(110)
 230 001a F0E0      		ldi r31,hi8(110)
 231 001c 8081      		ld r24,Z
 232 001e 8160      		ori r24,lo8(1)
 233 0020 8083      		st Z,r24
 234               	.LSM34:
 235               	/* #APP */
 236               	 ;  373 "solution.c" 1
 237 0022 7894      		sei
 238               	 ;  0 "" 2
 239               	/* epilogue start */
 240               	.LSM35:
 241               	/* #NOAPP */
 242 0024 0895      		ret
 243               	.LFE15:
 245               		.section	.text.heroForward,"ax",@progbits
 246               	.global	heroForward
 248               	heroForward:
 249               	.LFB17:
 250               	.LSM36:
 251 0000 0F93      		push r16
 252 0002 1F93      		push r17
 253               	/* prologue: function */
 254               	/* frame size = 0 */
 255               	.LSM37:
 256 0004 8091 0000 		lds r24,Direction
 257 0008 9091 0000 		lds r25,(Direction)+1
 258 000c 892B      		or r24,r25
 259 000e 01F4      		brne .L18
 260               	.LSM38:
 261 0010 81E0      		ldi r24,lo8(1)
 262 0012 90E0      		ldi r25,hi8(1)
 263 0014 9093 0000 		sts (HeroY)+1,r25
 264 0018 8093 0000 		sts HeroY,r24
 265               	.LSM39:
 266 001c 1092 0000 		sts (HeroX)+1,__zero_reg__
 267 0020 1092 0000 		sts HeroX,__zero_reg__
 268               	.LSM40:
 269 0024 0091 0000 		lds r16,my_pointer
 270 0028 1091 0000 		lds r17,(my_pointer)+1
 271 002c 6091 0000 		lds r22,screen_y
 272 0030 7091 0000 		lds r23,(screen_y)+1
 273 0034 6150      		subi r22,lo8(-(-1))
 274 0036 7040      		sbci r23,hi8(-(-1))
 275 0038 8827      		clr r24
 276 003a 77FD      		sbrc r23,7
 277 003c 8095      		com r24
 278 003e 982F      		mov r25,r24
 279 0040 0E94 0000 		call __floatsisf
 280 0044 9B01      		movw r18,r22
 281 0046 AC01      		movw r20,r24
 282 0048 F801      		movw r30,r16
 283 004a 6481      		ldd r22,Z+4
 284 004c 7581      		ldd r23,Z+5
 285 004e 8681      		ldd r24,Z+6
 286 0050 9781      		ldd r25,Z+7
 287 0052 0E94 0000 		call __gtsf2
 288 0056 1816      		cp __zero_reg__,r24
 289 0058 04F4      		brge .L18
 290               	.LSM41:
 291 005a 1092 0000 		sts (HeroY)+1,__zero_reg__
 292 005e 1092 0000 		sts HeroY,__zero_reg__
 293               	.L18:
 294               	.LSM42:
 295 0062 8091 0000 		lds r24,Direction
 296 0066 9091 0000 		lds r25,(Direction)+1
 297 006a 8130      		cpi r24,1
 298 006c 9105      		cpc r25,__zero_reg__
 299 006e 01F4      		brne .L20
 300               	.LSM43:
 301 0070 9093 0000 		sts (HeroX)+1,r25
 302 0074 8093 0000 		sts HeroX,r24
 303               	.LSM44:
 304 0078 1092 0000 		sts (HeroY)+1,__zero_reg__
 305 007c 1092 0000 		sts HeroY,__zero_reg__
 306               	.LSM45:
 307 0080 0091 0000 		lds r16,my_pointer
 308 0084 1091 0000 		lds r17,(my_pointer)+1
 309 0088 6091 0000 		lds r22,screen_x
 310 008c 7091 0000 		lds r23,(screen_x)+1
 311 0090 6150      		subi r22,lo8(-(-1))
 312 0092 7040      		sbci r23,hi8(-(-1))
 313 0094 8827      		clr r24
 314 0096 77FD      		sbrc r23,7
 315 0098 8095      		com r24
 316 009a 982F      		mov r25,r24
 317 009c 0E94 0000 		call __floatsisf
 318 00a0 9B01      		movw r18,r22
 319 00a2 AC01      		movw r20,r24
 320 00a4 F801      		movw r30,r16
 321 00a6 6081      		ld r22,Z
 322 00a8 7181      		ldd r23,Z+1
 323 00aa 8281      		ldd r24,Z+2
 324 00ac 9381      		ldd r25,Z+3
 325 00ae 0E94 0000 		call __gtsf2
 326 00b2 1816      		cp __zero_reg__,r24
 327 00b4 04F4      		brge .L20
 328               	.LSM46:
 329 00b6 1092 0000 		sts (HeroX)+1,__zero_reg__
 330 00ba 1092 0000 		sts HeroX,__zero_reg__
 331               	.L20:
 332               	.LSM47:
 333 00be 8091 0000 		lds r24,Direction
 334 00c2 9091 0000 		lds r25,(Direction)+1
 335 00c6 0297      		sbiw r24,2
 336 00c8 01F4      		brne .L22
 337               	.LSM48:
 338 00ca 8FEF      		ldi r24,lo8(-1)
 339 00cc 9FEF      		ldi r25,hi8(-1)
 340 00ce 9093 0000 		sts (HeroY)+1,r25
 341 00d2 8093 0000 		sts HeroY,r24
 342               	.LSM49:
 343 00d6 1092 0000 		sts (HeroX)+1,__zero_reg__
 344 00da 1092 0000 		sts HeroX,__zero_reg__
 345               	.LSM50:
 346 00de E091 0000 		lds r30,my_pointer
 347 00e2 F091 0000 		lds r31,(my_pointer)+1
 348 00e6 6481      		ldd r22,Z+4
 349 00e8 7581      		ldd r23,Z+5
 350 00ea 8681      		ldd r24,Z+6
 351 00ec 9781      		ldd r25,Z+7
 352 00ee 20E0      		ldi r18,lo8(0x41200000)
 353 00f0 30E0      		ldi r19,hi8(0x41200000)
 354 00f2 40E2      		ldi r20,hlo8(0x41200000)
 355 00f4 51E4      		ldi r21,hhi8(0x41200000)
 356 00f6 0E94 0000 		call __ltsf2
 357 00fa 8823      		tst r24
 358 00fc 04F4      		brge .L22
 359               	.LSM51:
 360 00fe 1092 0000 		sts (HeroY)+1,__zero_reg__
 361 0102 1092 0000 		sts HeroY,__zero_reg__
 362               	.L22:
 363               	.LSM52:
 364 0106 8091 0000 		lds r24,Direction
 365 010a 9091 0000 		lds r25,(Direction)+1
 366 010e 0397      		sbiw r24,3
 367 0110 01F4      		brne .L24
 368               	.LSM53:
 369 0112 8FEF      		ldi r24,lo8(-1)
 370 0114 9FEF      		ldi r25,hi8(-1)
 371 0116 9093 0000 		sts (HeroX)+1,r25
 372 011a 8093 0000 		sts HeroX,r24
 373               	.LSM54:
 374 011e 1092 0000 		sts (HeroY)+1,__zero_reg__
 375 0122 1092 0000 		sts HeroY,__zero_reg__
 376               	.LSM55:
 377 0126 E091 0000 		lds r30,my_pointer
 378 012a F091 0000 		lds r31,(my_pointer)+1
 379 012e 6081      		ld r22,Z
 380 0130 7181      		ldd r23,Z+1
 381 0132 8281      		ldd r24,Z+2
 382 0134 9381      		ldd r25,Z+3
 383 0136 20E0      		ldi r18,lo8(0x40000000)
 384 0138 30E0      		ldi r19,hi8(0x40000000)
 385 013a 40E0      		ldi r20,hlo8(0x40000000)
 386 013c 50E4      		ldi r21,hhi8(0x40000000)
 387 013e 0E94 0000 		call __ltsf2
 388 0142 8823      		tst r24
 389 0144 04F4      		brge .L24
 390               	.LSM56:
 391 0146 1092 0000 		sts (HeroX)+1,__zero_reg__
 392 014a 1092 0000 		sts HeroX,__zero_reg__
 393               	.L24:
 394               	.LSM57:
 395 014e 0091 0000 		lds r16,my_pointer
 396 0152 1091 0000 		lds r17,(my_pointer)+1
 397 0156 6091 0000 		lds r22,HeroX
 398 015a 7091 0000 		lds r23,(HeroX)+1
 399 015e 8827      		clr r24
 400 0160 77FD      		sbrc r23,7
 401 0162 8095      		com r24
 402 0164 982F      		mov r25,r24
 403 0166 0E94 0000 		call __floatsisf
 404 016a 9B01      		movw r18,r22
 405 016c AC01      		movw r20,r24
 406 016e F801      		movw r30,r16
 407 0170 6081      		ld r22,Z
 408 0172 7181      		ldd r23,Z+1
 409 0174 8281      		ldd r24,Z+2
 410 0176 9381      		ldd r25,Z+3
 411 0178 0E94 0000 		call __addsf3
 412 017c F801      		movw r30,r16
 413 017e 6083      		st Z,r22
 414 0180 7183      		std Z+1,r23
 415 0182 8283      		std Z+2,r24
 416 0184 9383      		std Z+3,r25
 417               	.LSM58:
 418 0186 6091 0000 		lds r22,HeroY
 419 018a 7091 0000 		lds r23,(HeroY)+1
 420 018e 8827      		clr r24
 421 0190 77FD      		sbrc r23,7
 422 0192 8095      		com r24
 423 0194 982F      		mov r25,r24
 424 0196 0E94 0000 		call __floatsisf
 425 019a 9B01      		movw r18,r22
 426 019c AC01      		movw r20,r24
 427 019e F801      		movw r30,r16
 428 01a0 6481      		ldd r22,Z+4
 429 01a2 7581      		ldd r23,Z+5
 430 01a4 8681      		ldd r24,Z+6
 431 01a6 9781      		ldd r25,Z+7
 432 01a8 0E94 0000 		call __addsf3
 433 01ac F801      		movw r30,r16
 434 01ae 6483      		std Z+4,r22
 435 01b0 7583      		std Z+5,r23
 436 01b2 8683      		std Z+6,r24
 437 01b4 9783      		std Z+7,r25
 438               	/* epilogue start */
 439               	.LSM59:
 440 01b6 1F91      		pop r17
 441 01b8 0F91      		pop r16
 442 01ba 0895      		ret
 443               	.LFE17:
 445               		.section	.text.__vector_23,"ax",@progbits
 446               	.global	__vector_23
 448               	__vector_23:
 449               	.LFB16:
 450               	.LSM60:
 451 0000 1F92      		push __zero_reg__
 452 0002 0F92      		push r0
 453 0004 0FB6      		in r0,__SREG__
 454 0006 0F92      		push r0
 455 0008 1124      		clr __zero_reg__
 456 000a 2F93      		push r18
 457 000c 3F93      		push r19
 458 000e 4F93      		push r20
 459 0010 5F93      		push r21
 460 0012 6F93      		push r22
 461 0014 7F93      		push r23
 462 0016 8F93      		push r24
 463 0018 9F93      		push r25
 464 001a AF93      		push r26
 465 001c BF93      		push r27
 466 001e EF93      		push r30
 467 0020 FF93      		push r31
 468               	/* prologue: Signal */
 469               	/* frame size = 0 */
 470               	.LSM61:
 471 0022 A89A      		sbi 53-32,0
 472               	.LSM62:
 473 0024 8091 0000 		lds r24,clockCounter
 474 0028 9091 0000 		lds r25,(clockCounter)+1
 475 002c 0196      		adiw r24,1
 476 002e 9093 0000 		sts (clockCounter)+1,r25
 477 0032 8093 0000 		sts clockCounter,r24
 478               	.LSM63:
 479 0036 8091 0000 		lds r24,clockCounter
 480 003a 9091 0000 		lds r25,(clockCounter)+1
 481 003e 0597      		sbiw r24,5
 482 0040 04F0      		brlt .L33
 483 0042 8091 0000 		lds r24,GAMEON
 484 0046 9091 0000 		lds r25,(GAMEON)+1
 485 004a 892B      		or r24,r25
 486 004c 01F0      		breq .L33
 487               	.LSM64:
 488 004e 1092 0000 		sts (clockCounter)+1,__zero_reg__
 489 0052 1092 0000 		sts clockCounter,__zero_reg__
 490               	.LSM65:
 491 0056 0E94 0000 		call heroForward
 492               	.L33:
 493               	/* epilogue start */
 494               	.LSM66:
 495 005a FF91      		pop r31
 496 005c EF91      		pop r30
 497 005e BF91      		pop r27
 498 0060 AF91      		pop r26
 499 0062 9F91      		pop r25
 500 0064 8F91      		pop r24
 501 0066 7F91      		pop r23
 502 0068 6F91      		pop r22
 503 006a 5F91      		pop r21
 504 006c 4F91      		pop r20
 505 006e 3F91      		pop r19
 506 0070 2F91      		pop r18
 507 0072 0F90      		pop r0
 508 0074 0FBE      		out __SREG__,r0
 509 0076 0F90      		pop r0
 510 0078 1F90      		pop __zero_reg__
 511 007a 1895      		reti
 512               	.LFE16:
 514               		.data
 515               	.LC0:
 516 0000 4C3A 2000 		.string	"L: "
 517               	.LC1:
 518 0004 533A 2000 		.string	"S: "
 519               		.section	.text.drawScreen,"ax",@progbits
 520               	.global	drawScreen
 522               	drawScreen:
 523               	.LFB18:
 524               	.LSM67:
 525               	/* prologue: function */
 526               	/* frame size = 0 */
 527               	.LSM68:
 528 0000 80E0      		ldi r24,lo8(0)
 529 0002 68E0      		ldi r22,lo8(8)
 530 0004 4091 0000 		lds r20,screen_x_Full
 531 0008 28E0      		ldi r18,lo8(8)
 532 000a 0E94 0000 		call draw_line
 533               	.LSM69:
 534 000e 80E0      		ldi r24,lo8(0)
 535 0010 68E0      		ldi r22,lo8(8)
 536 0012 40E0      		ldi r20,lo8(0)
 537 0014 2091 0000 		lds r18,screen_y_Full
 538 0018 0E94 0000 		call draw_line
 539               	.LSM70:
 540 001c 4091 0000 		lds r20,screen_x_Full
 541 0020 842F      		mov r24,r20
 542 0022 68E0      		ldi r22,lo8(8)
 543 0024 2091 0000 		lds r18,screen_y_Full
 544 0028 0E94 0000 		call draw_line
 545               	.LSM71:
 546 002c 2091 0000 		lds r18,screen_y_Full
 547 0030 80E0      		ldi r24,lo8(0)
 548 0032 622F      		mov r22,r18
 549 0034 4091 0000 		lds r20,screen_x_Full
 550 0038 0E94 0000 		call draw_line
 551               	.LSM72:
 552 003c 80E0      		ldi r24,lo8(.LC0)
 553 003e 90E0      		ldi r25,hi8(.LC0)
 554 0040 60E0      		ldi r22,lo8(0)
 555 0042 40E0      		ldi r20,lo8(0)
 556 0044 0E94 0000 		call draw_string
 557               	.LSM73:
 558 0048 8091 0000 		lds r24,Lives
 559 004c 805D      		subi r24,lo8(-(48))
 560 004e 6BE0      		ldi r22,lo8(11)
 561 0050 40E0      		ldi r20,lo8(0)
 562 0052 0E94 0000 		call draw_character
 563               	.LSM74:
 564 0056 80E0      		ldi r24,lo8(.LC1)
 565 0058 90E0      		ldi r25,hi8(.LC1)
 566 005a 65E1      		ldi r22,lo8(21)
 567 005c 40E0      		ldi r20,lo8(0)
 568 005e 0E94 0000 		call draw_string
 569               	.LSM75:
 570 0062 8091 0000 		lds r24,Score
 571 0066 805D      		subi r24,lo8(-(48))
 572 0068 6FE1      		ldi r22,lo8(31)
 573 006a 40E0      		ldi r20,lo8(0)
 574 006c 0E94 0000 		call draw_character
 575               	.LSM76:
 576 0070 8091 0000 		lds r24,Direction
 577 0074 9091 0000 		lds r25,(Direction)+1
 578 0078 805D      		subi r24,lo8(-(48))
 579 007a 66E4      		ldi r22,lo8(70)
 580 007c 40E0      		ldi r20,lo8(0)
 581 007e 0E94 0000 		call draw_character
 582               	/* epilogue start */
 583               	.LSM77:
 584 0082 0895      		ret
 585               	.LFE18:
 587               		.section	.text.seedWithButtonPress,"ax",@progbits
 588               	.global	seedWithButtonPress
 590               	seedWithButtonPress:
 591               	.LFB12:
 592               	.LSM78:
 593               	/* prologue: function */
 594               	/* frame size = 0 */
 595               	.LSM79:
 596 0000 5E9A      		sbi 43-32,6
 597               	.LSM80:
 598 0002 84B1      		in r24,36-32
 599 0004 8C60      		ori r24,lo8(12)
 600 0006 84B9      		out 36-32,r24
 601 0008 20E0      		ldi r18,lo8(0)
 602 000a 30E0      		ldi r19,hi8(0)
 603               	.LVL8:
 604 000c 00C0      		rjmp .L37
 605               	.L39:
 606               	.LSM81:
 607 000e 2F5F      		subi r18,lo8(-(1))
 608 0010 3F4F      		sbci r19,hi8(-(1))
 609               	.L37:
 610               	.LSM82:
 611 0012 8091 0000 		lds r24,RIGHT
 612 0016 9091 0000 		lds r25,(RIGHT)+1
 613 001a 892B      		or r24,r25
 614 001c 01F4      		brne .L38
 615 001e 8091 0000 		lds r24,LEFT
 616 0022 9091 0000 		lds r25,(LEFT)+1
 617 0026 892B      		or r24,r25
 618 0028 01F0      		breq .L39
 619               	.L38:
 620               	.LSM83:
 621 002a C901      		movw r24,r18
 622 002c 0E94 0000 		call srand
 623               	.LVL9:
 624               	.LSM84:
 625 0030 1BB8      		out 43-32,__zero_reg__
 626               	/* epilogue start */
 627               	.LSM85:
 628 0032 0895      		ret
 629               	.LFE12:
 631               		.section	.text.randInRange,"ax",@progbits
 632               	.global	randInRange
 634               	randInRange:
 635               	.LFB11:
 636               	.LSM86:
 637               	.LVL10:
 638 0000 EF92      		push r14
 639 0002 FF92      		push r15
 640 0004 0F93      		push r16
 641 0006 1F93      		push r17
 642               	/* prologue: function */
 643               	/* frame size = 0 */
 644 0008 8C01      		movw r16,r24
 645 000a 7B01      		movw r14,r22
 646               	.LSM87:
 647 000c 0E94 0000 		call rand
 648               	.LVL11:
 649 0010 E01A      		sub r14,r16
 650 0012 F10A      		sbc r15,r17
 651 0014 0894      		sec
 652 0016 E11C      		adc r14,__zero_reg__
 653 0018 F11C      		adc r15,__zero_reg__
 654 001a B701      		movw r22,r14
 655 001c 0E94 0000 		call __divmodhi4
 656 0020 9C01      		movw r18,r24
 657 0022 200F      		add r18,r16
 658 0024 311F      		adc r19,r17
 659               	.LSM88:
 660 0026 C901      		movw r24,r18
 661               	/* epilogue start */
 662 0028 1F91      		pop r17
 663 002a 0F91      		pop r16
 664               	.LVL12:
 665 002c FF90      		pop r15
 666 002e EF90      		pop r14
 667               	.LVL13:
 668 0030 0895      		ret
 669               	.LFE11:
 671               		.data
 672               	.LC2:
 673 0008 4761 6D65 		.string	"Game Start In: "
 673      2053 7461 
 673      7274 2049 
 673      6E3A 2000 
 674               		.section	.text.CountDown,"ax",@progbits
 675               	.global	CountDown
 677               	CountDown:
 678               	.LFB9:
 679               	.LSM89:
 680 0000 1F93      		push r17
 681 0002 CF93      		push r28
 682 0004 DF93      		push r29
 683               	/* prologue: function */
 684               	/* frame size = 0 */
 685               	.LSM90:
 686 0006 13E3      		ldi r17,lo8(51)
 687               	.LBB49:
 688               	.LBB50:
 689               	.LBB51:
 690               	.LBB52:
 691               	.LBB53:
 692               	.LSM91:
 693 0008 C0E9      		ldi r28,lo8(400)
 694 000a D1E0      		ldi r29,hi8(400)
 695               	.LVL14:
 696               	.L45:
 697               	.LBE53:
 698               	.LBE52:
 699               	.LBE51:
 700               	.LBE50:
 701               	.LSM92:
 702 000c 0E94 0000 		call clear
 703               	.LVL15:
 704               	.LSM93:
 705 0010 80E0      		ldi r24,lo8(.LC2)
 706 0012 90E0      		ldi r25,hi8(.LC2)
 707 0014 62E0      		ldi r22,lo8(2)
 708 0016 46E1      		ldi r20,lo8(22)
 709 0018 0E94 0000 		call draw_string
 710               	.LSM94:
 711 001c 812F      		mov r24,r17
 712 001e 6BE4      		ldi r22,lo8(75)
 713 0020 46E1      		ldi r20,lo8(22)
 714 0022 0E94 0000 		call draw_character
 715               	.LSM95:
 716 0026 0E94 0000 		call refresh
 717 002a 80E1      		ldi r24,lo8(10000)
 718 002c 97E2      		ldi r25,hi8(10000)
 719               	.LVL16:
 720               	.L44:
 721               	.LBB57:
 722               	.LBB56:
 723               	.LBB55:
 724               	.LBB54:
 725               	.LSM96:
 726 002e FE01      		movw r30,r28
 727               	.LVL17:
 728               	/* #APP */
 729               	 ;  105 "c:/winavr-20100110/lib/gcc/../../avr/include/util/delay_basic.h" 1
 730 0030 3197      		1: sbiw r30,1
 731 0032 01F4      		brne 1b
 732               	 ;  0 "" 2
 733               	/* #NOAPP */
 734               	.LBE54:
 735               	.LBE55:
 736               	.LSM97:
 737 0034 0197      		sbiw r24,1
 738               	.LSM98:
 739 0036 01F4      		brne .L44
 740 0038 1150      		subi r17,lo8(-(-1))
 741               	.LBE56:
 742               	.LBE57:
 743               	.LSM99:
 744 003a 1033      		cpi r17,lo8(48)
 745 003c 01F4      		brne .L45
 746               	/* epilogue start */
 747               	.LBE49:
 748               	.LSM100:
 749 003e DF91      		pop r29
 750 0040 CF91      		pop r28
 751 0042 1F91      		pop r17
 752 0044 0895      		ret
 753               	.LFE9:
 755               		.data
 756               	.LC3:
 757 0018 5A6F 6D62 		.string	"ZombieDash v1.0"
 757      6965 4461 
 757      7368 2076 
 757      312E 3000 
 758               	.LC4:
 759 0028 4C61 6368 		.string	"Lachlan Robinson"
 759      6C61 6E20 
 759      526F 6269 
 759      6E73 6F6E 
 759      00
 760               	.LC5:
 761 0039 6E38 3834 		.string	"n8845409"
 761      3534 3039 
 761      00
 762               		.section	.text.setupGame,"ax",@progbits
 763               	.global	setupGame
 765               	setupGame:
 766               	.LFB8:
 767               	.LSM101:
 768               	/* prologue: function */
 769               	/* frame size = 0 */
 770               	.LSM102:
 771 0000 84B1      		in r24,36-32
 772 0002 8C60      		ori r24,lo8(12)
 773 0004 84B9      		out 36-32,r24
 774               	.LSM103:
 775 0006 569A      		sbi 42-32,6
 776               	.LSM104:
 777 0008 8BB1      		in r24,43-32
 778 000a 8BB9      		out 43-32,r24
 779               	.LSM105:
 780 000c 289A      		sbi 37-32,0
 781               	.LSM106:
 782 000e E1E6      		ldi r30,lo8(97)
 783 0010 F0E0      		ldi r31,hi8(97)
 784 0012 80E8      		ldi r24,lo8(-128)
 785 0014 8083      		st Z,r24
 786 0016 1082      		st Z,__zero_reg__
 787               	.LSM107:
 788 0018 8FE3      		ldi r24,lo8(63)
 789 001a 0E94 0000 		call LCDInitialise
 790               	.LSM108:
 791 001e 0E94 0000 		call clear
 792               	.LSM109:
 793 0022 0E94 0000 		call PinChangeInit
 794               	.LSM110:
 795 0026 0E94 0000 		call TimerInit
 796               	.LSM111:
 797 002a 0E94 0000 		call clear
 798               	.LSM112:
 799 002e 80E0      		ldi r24,lo8(.LC3)
 800 0030 90E0      		ldi r25,hi8(.LC3)
 801 0032 64E0      		ldi r22,lo8(4)
 802 0034 40E0      		ldi r20,lo8(0)
 803 0036 0E94 0000 		call draw_string
 804               	.LSM113:
 805 003a 80E0      		ldi r24,lo8(.LC4)
 806 003c 90E0      		ldi r25,hi8(.LC4)
 807 003e 62E0      		ldi r22,lo8(2)
 808 0040 49E0      		ldi r20,lo8(9)
 809 0042 0E94 0000 		call draw_string
 810               	.LSM114:
 811 0046 80E0      		ldi r24,lo8(.LC5)
 812 0048 90E0      		ldi r25,hi8(.LC5)
 813 004a 66E1      		ldi r22,lo8(22)
 814 004c 4CE1      		ldi r20,lo8(28)
 815 004e 0E94 0000 		call draw_string
 816               	.LSM115:
 817 0052 0E94 0000 		call refresh
 818               	.LSM116:
 819 0056 0E94 0000 		call seedWithButtonPress
 820               	.LSM117:
 821 005a 0E94 0000 		call buttonCheck
 822               	.LSM118:
 823 005e 0E94 0000 		call CountDown
 824               	/* epilogue start */
 825               	.LSM119:
 826 0062 0895      		ret
 827               	.LFE8:
 829               		.section	.text.main,"ax",@progbits
 830               	.global	main
 832               	main:
 833               	.LFB7:
 834               	.LSM120:
 835 0000 6F92      		push r6
 836 0002 7F92      		push r7
 837 0004 8F92      		push r8
 838 0006 9F92      		push r9
 839 0008 AF92      		push r10
 840 000a BF92      		push r11
 841 000c CF92      		push r12
 842 000e DF92      		push r13
 843 0010 EF92      		push r14
 844 0012 FF92      		push r15
 845 0014 0F93      		push r16
 846 0016 1F93      		push r17
 847 0018 DF93      		push r29
 848 001a CF93      		push r28
 849 001c CDB7      		in r28,__SP_L__
 850 001e DEB7      		in r29,__SP_H__
 851 0020 C35C      		subi r28,lo8(-(-195))
 852 0022 D040      		sbci r29,hi8(-(-195))
 853 0024 0FB6      		in __tmp_reg__,__SREG__
 854 0026 F894      		cli
 855 0028 DEBF      		out __SP_H__,r29
 856 002a 0FBE      		out __SREG__,__tmp_reg__
 857 002c CDBF      		out __SP_L__,r28
 858               	/* prologue: function */
 859               	/* frame size = 195 */
 860               	.LSM121:
 861 002e 0E94 0000 		call setupGame
 862               	.LSM122:
 863 0032 0E94 0000 		call clear
 864               	.LSM123:
 865 0036 0E94 0000 		call refresh
 866               	.LSM124:
 867 003a DE01      		movw r26,r28
 868 003c 1196      		adiw r26,1
 869 003e E0E0      		ldi r30,lo8(C.0.1751)
 870 0040 F0E0      		ldi r31,hi8(C.0.1751)
 871 0042 83E0      		ldi r24,lo8(3)
 872               	.L52:
 873 0044 0190      		ld r0,Z+
 874 0046 0D92      		st X+,r0
 875 0048 8150      		subi r24,lo8(-(-1))
 876 004a 01F4      		brne .L52
 877               	.LSM125:
 878 004c DE01      		movw r26,r28
 879 004e 1496      		adiw r26,4
 880 0050 E0E0      		ldi r30,lo8(C.1.1752)
 881 0052 F0E0      		ldi r31,hi8(C.1.1752)
 882 0054 83E0      		ldi r24,lo8(3)
 883               	.L53:
 884 0056 0190      		ld r0,Z+
 885 0058 0D92      		st X+,r0
 886 005a 8150      		subi r24,lo8(-(-1))
 887 005c 01F4      		brne .L53
 888               	.LSM126:
 889 005e 2091 0000 		lds r18,width
 890 0062 8091 0000 		lds r24,screen_x
 891 0066 9091 0000 		lds r25,(screen_x)+1
 892 006a 821B      		sub r24,r18
 893 006c 9109      		sbc r25,__zero_reg__
 894 006e 9093 0000 		sts (screen_x)+1,r25
 895 0072 8093 0000 		sts screen_x,r24
 896               	.LSM127:
 897 0076 4091 0000 		lds r20,height
 898 007a 2091 0000 		lds r18,screen_y
 899 007e 3091 0000 		lds r19,(screen_y)+1
 900 0082 241B      		sub r18,r20
 901 0084 3109      		sbc r19,__zero_reg__
 902 0086 3093 0000 		sts (screen_y)+1,r19
 903 008a 2093 0000 		sts screen_y,r18
 904               	.LSM128:
 905 008e 62E0      		ldi r22,lo8(2)
 906 0090 70E0      		ldi r23,hi8(2)
 907 0092 0E94 0000 		call __divmodhi4
 908 0096 962E      		mov r9,r22
 909               	.LVL18:
 910               	.LSM129:
 911 0098 C901      		movw r24,r18
 912 009a 62E0      		ldi r22,lo8(2)
 913 009c 70E0      		ldi r23,hi8(2)
 914 009e 0E94 0000 		call __divmodhi4
 915 00a2 8B01      		movw r16,r22
 916               	.LVL19:
 917 00a4 0B5F      		subi r16,lo8(-(5))
 918 00a6 1F4F      		sbci r17,hi8(-(5))
 919 00a8 EE24      		clr r14
 920 00aa FF24      		clr r15
 921               	.LVL20:
 922               	.LBB58:
 923               	.LBB59:
 924               	.LBB60:
 925               	.LBB61:
 926               	.LBB62:
 927               	.LSM130:
 928 00ac E0E9      		ldi r30,lo8(400)
 929 00ae CE2E      		mov r12,r30
 930 00b0 E1E0      		ldi r30,hi8(400)
 931 00b2 DE2E      		mov r13,r30
 932               	.LVL21:
 933               	.L55:
 934               	.LBE62:
 935               	.LBE61:
 936               	.LBE60:
 937               	.LBE59:
 938               	.LSM131:
 939 00b4 0E94 0000 		call clear
 940               	.LVL22:
 941               	.LSM132:
 942 00b8 80E0      		ldi r24,lo8(0)
 943 00ba 90E0      		ldi r25,hi8(0)
 944 00bc 69E0      		ldi r22,lo8(9)
 945 00be 70E0      		ldi r23,hi8(9)
 946 00c0 0E94 0000 		call randInRange
 947 00c4 805D      		subi r24,lo8(-(48))
 948 00c6 692D      		mov r22,r9
 949 00c8 402F      		mov r20,r16
 950 00ca 0E94 0000 		call draw_character
 951               	.LSM133:
 952 00ce 0E94 0000 		call refresh
 953 00d2 88E8      		ldi r24,lo8(5000)
 954 00d4 93E1      		ldi r25,hi8(5000)
 955               	.LVL23:
 956               	.L54:
 957               	.LBB66:
 958               	.LBB65:
 959               	.LBB64:
 960               	.LBB63:
 961               	.LSM134:
 962 00d6 F601      		movw r30,r12
 963               	.LVL24:
 964               	/* #APP */
 965               	 ;  105 "c:/winavr-20100110/lib/gcc/../../avr/include/util/delay_basic.h" 1
 966 00d8 3197      		1: sbiw r30,1
 967 00da 01F4      		brne 1b
 968               	 ;  0 "" 2
 969               	/* #NOAPP */
 970               	.LBE63:
 971               	.LBE64:
 972               	.LSM135:
 973 00dc 0197      		sbiw r24,1
 974               	.LSM136:
 975 00de 01F4      		brne .L54
 976               	.LBE65:
 977               	.LBE66:
 978               	.LSM137:
 979 00e0 0894      		sec
 980 00e2 E11C      		adc r14,__zero_reg__
 981 00e4 F11C      		adc r15,__zero_reg__
 982 00e6 84E6      		ldi r24,lo8(100)
 983 00e8 E816      		cp r14,r24
 984 00ea F104      		cpc r15,__zero_reg__
 985               	.LVL25:
 986 00ec 01F4      		brne .L55
 987 00ee 802E      		mov r8,r16
 988 00f0 7CE1      		ldi r23,lo8(28)
 989 00f2 C72E      		mov r12,r23
 990 00f4 D12C      		mov r13,__zero_reg__
 991 00f6 CC0E      		add r12,r28
 992 00f8 DD1E      		adc r13,r29
 993 00fa 60E0      		ldi r22,lo8(zombie)
 994 00fc A62E      		mov r10,r22
 995 00fe 60E0      		ldi r22,hi8(zombie)
 996 0100 B62E      		mov r11,r22
 997 0102 192D      		mov r17,r9
 998               	.LBE58:
 999               	.LBB67:
 1000               	.LSM138:
 1001 0104 54E0      		ldi r21,lo8(4)
 1002 0106 652E      		mov r6,r21
 1003 0108 712C      		mov r7,__zero_reg__
 1004 010a 6C0E      		add r6,r28
 1005 010c 7D1E      		adc r7,r29
 1006               	.L56:
 1007               	.LSM139:
 1008 010e F501      		movw r30,r10
 1009               	.LVL26:
 1010 0110 C082      		st Z,r12
 1011 0112 D182      		std Z+1,r13
 1012               	.LSM140:
 1013 0114 C601      		movw r24,r12
 1014 0116 612F      		mov r22,r17
 1015 0118 482D      		mov r20,r8
 1016 011a 2091 0000 		lds r18,width
 1017 011e 0091 0000 		lds r16,height
 1018               	.LVL27:
 1019 0122 7301      		movw r14,r6
 1020               	.LVL28:
 1021 0124 0E94 0000 		call init_sprite
 1022 0128 82E0      		ldi r24,lo8(2)
 1023 012a 90E0      		ldi r25,hi8(2)
 1024 012c A80E      		add r10,r24
 1025 012e B91E      		adc r11,r25
 1026 0130 E5E1      		ldi r30,lo8(21)
 1027 0132 F0E0      		ldi r31,hi8(21)
 1028 0134 CE0E      		add r12,r30
 1029 0136 DF1E      		adc r13,r31
 1030 0138 1D5F      		subi r17,lo8(-(3))
 1031               	.LSM141:
 1032 013a F0E0      		ldi r31,lo8(zombie+16)
 1033 013c AF16      		cp r10,r31
 1034 013e F0E0      		ldi r31,hi8(zombie+16)
 1035 0140 BF06      		cpc r11,r31
 1036 0142 01F4      		brne .L56
 1037               	.LBE67:
 1038               	.LSM142:
 1039 0144 CE01      		movw r24,r28
 1040 0146 0796      		adiw r24,7
 1041 0148 9093 0000 		sts (my_pointer)+1,r25
 1042 014c 8093 0000 		sts my_pointer,r24
 1043               	.LSM143:
 1044 0150 692D      		mov r22,r9
 1045 0152 482D      		mov r20,r8
 1046 0154 2091 0000 		lds r18,width
 1047 0158 0091 0000 		lds r16,height
 1048 015c 7E01      		movw r14,r28
 1049 015e 0894      		sec
 1050 0160 E11C      		adc r14,__zero_reg__
 1051 0162 F11C      		adc r15,__zero_reg__
 1052 0164 0E94 0000 		call init_sprite
 1053               	.LSM144:
 1054 0168 8091 0000 		lds r24,my_pointer
 1055 016c 9091 0000 		lds r25,(my_pointer)+1
 1056 0170 0E94 0000 		call draw_sprite
 1057 0174 40EF      		ldi r20,lo8(-16)
 1058 0176 E42E      		mov r14,r20
 1059 0178 4FEF      		ldi r20,hi8(-16)
 1060 017a F42E      		mov r15,r20
 1061 017c EA0C      		add r14,r10
 1062 017e FB1C      		adc r15,r11
 1063               	.L57:
 1064               	.LBB68:
 1065               	.LSM145:
 1066 0180 F701      		movw r30,r14
 1067 0182 8191      		ld r24,Z+
 1068 0184 9191      		ld r25,Z+
 1069 0186 7F01      		movw r14,r30
 1070 0188 0E94 0000 		call draw_sprite
 1071               	.LSM146:
 1072 018c F0E0      		ldi r31,lo8(zombie+16)
 1073 018e EF16      		cp r14,r31
 1074 0190 F0E0      		ldi r31,hi8(zombie+16)
 1075 0192 FF06      		cpc r15,r31
 1076 0194 01F4      		brne .L57
 1077               	.LBE68:
 1078               	.LSM147:
 1079 0196 0E94 0000 		call refresh
 1080 019a 88EE      		ldi r24,lo8(1000)
 1081 019c 93E0      		ldi r25,hi8(1000)
 1082               	.LVL29:
 1083               	.LBB69:
 1084               	.LBB70:
 1085               	.LBB71:
 1086               	.LBB72:
 1087               	.LSM148:
 1088 019e 20E9      		ldi r18,lo8(400)
 1089 01a0 31E0      		ldi r19,hi8(400)
 1090               	.L58:
 1091 01a2 F901      		movw r30,r18
 1092               	.LVL30:
 1093               	/* #APP */
 1094               	 ;  105 "c:/winavr-20100110/lib/gcc/../../avr/include/util/delay_basic.h" 1
 1095 01a4 3197      		1: sbiw r30,1
 1096 01a6 01F4      		brne 1b
 1097               	 ;  0 "" 2
 1098               	/* #NOAPP */
 1099               	.LBE72:
 1100               	.LBE71:
 1101               	.LSM149:
 1102 01a8 0197      		sbiw r24,1
 1103               	.LSM150:
 1104 01aa 01F4      		brne .L58
 1105               	.LBE70:
 1106               	.LBE69:
 1107               	.LSM151:
 1108 01ac 81E0      		ldi r24,lo8(1)
 1109 01ae 90E0      		ldi r25,hi8(1)
 1110               	.LVL31:
 1111 01b0 9093 0000 		sts (GAMEON)+1,r25
 1112 01b4 8093 0000 		sts GAMEON,r24
 1113 01b8 01E0      		ldi r16,lo8(1)
 1114 01ba 10E0      		ldi r17,hi8(1)
 1115               	.LVL32:
 1116 01bc 31E0      		ldi r19,lo8(1)
 1117 01be C32E      		mov r12,r19
 1118 01c0 D12C      		mov r13,__zero_reg__
 1119               	.LVL33:
 1120               	.LSM152:
 1121 01c2 23E0      		ldi r18,lo8(3)
 1122 01c4 A22E      		mov r10,r18
 1123 01c6 B12C      		mov r11,__zero_reg__
 1124               	.L65:
 1125               	.LSM153:
 1126 01c8 0E94 0000 		call clear
 1127               	.LVL34:
 1128               	.LSM154:
 1129 01cc 8091 0000 		lds r24,RIGHT
 1130 01d0 9091 0000 		lds r25,(RIGHT)+1
 1131 01d4 892B      		or r24,r25
 1132 01d6 01F4      		brne .L59
 1133 01d8 01E0      		ldi r16,lo8(1)
 1134 01da 10E0      		ldi r17,hi8(1)
 1135               	.L59:
 1136               	.LSM155:
 1137 01dc 8091 0000 		lds r24,LEFT
 1138 01e0 9091 0000 		lds r25,(LEFT)+1
 1139 01e4 892B      		or r24,r25
 1140 01e6 01F4      		brne .L60
 1141 01e8 91E0      		ldi r25,lo8(1)
 1142 01ea C92E      		mov r12,r25
 1143 01ec D12C      		mov r13,__zero_reg__
 1144               	.L60:
 1145               	.LSM156:
 1146 01ee 8091 0000 		lds r24,RIGHT
 1147 01f2 9091 0000 		lds r25,(RIGHT)+1
 1148 01f6 892B      		or r24,r25
 1149 01f8 01F0      		breq .L61
 1150 01fa 0115      		cp r16,__zero_reg__
 1151 01fc 1105      		cpc r17,__zero_reg__
 1152 01fe 01F0      		breq .L61
 1153               	.LSM157:
 1154 0200 8091 0000 		lds r24,Direction
 1155 0204 9091 0000 		lds r25,(Direction)+1
 1156 0208 0197      		sbiw r24,1
 1157 020a 9093 0000 		sts (Direction)+1,r25
 1158 020e 8093 0000 		sts Direction,r24
 1159               	.LSM158:
 1160 0212 8091 0000 		lds r24,Direction
 1161 0216 9091 0000 		lds r25,(Direction)+1
 1162 021a 97FF      		sbrs r25,7
 1163 021c 00C0      		rjmp .L75
 1164               	.L62:
 1165               	.LSM159:
 1166 021e B092 0000 		sts (Direction)+1,r11
 1167 0222 A092 0000 		sts Direction,r10
 1168               	.L75:
 1169 0226 00E0      		ldi r16,lo8(0)
 1170 0228 10E0      		ldi r17,hi8(0)
 1171               	.L61:
 1172               	.LSM160:
 1173 022a 8091 0000 		lds r24,LEFT
 1174 022e 9091 0000 		lds r25,(LEFT)+1
 1175 0232 8C21      		and r24,r12
 1176 0234 9D21      		and r25,r13
 1177 0236 892B      		or r24,r25
 1178 0238 01F0      		breq .L63
 1179               	.LSM161:
 1180 023a 8091 0000 		lds r24,Direction
 1181 023e 9091 0000 		lds r25,(Direction)+1
 1182 0242 0196      		adiw r24,1
 1183 0244 64E0      		ldi r22,lo8(4)
 1184 0246 70E0      		ldi r23,hi8(4)
 1185 0248 0E94 0000 		call __divmodhi4
 1186 024c 9093 0000 		sts (Direction)+1,r25
 1187 0250 8093 0000 		sts Direction,r24
 1188 0254 CC24      		clr r12
 1189 0256 DD24      		clr r13
 1190               	.L63:
 1191               	.LSM162:
 1192 0258 8091 0000 		lds r24,my_pointer
 1193 025c 9091 0000 		lds r25,(my_pointer)+1
 1194 0260 0E94 0000 		call draw_sprite
 1195 0264 80E0      		ldi r24,lo8(zombie)
 1196 0266 E82E      		mov r14,r24
 1197 0268 80E0      		ldi r24,hi8(zombie)
 1198 026a F82E      		mov r15,r24
 1199               	.L64:
 1200               	.LBB73:
 1201               	.LSM163:
 1202 026c F701      		movw r30,r14
 1203 026e 8191      		ld r24,Z+
 1204 0270 9191      		ld r25,Z+
 1205 0272 7F01      		movw r14,r30
 1206 0274 0E94 0000 		call draw_sprite
 1207               	.LSM164:
 1208 0278 F0E0      		ldi r31,lo8(zombie+16)
 1209 027a EF16      		cp r14,r31
 1210 027c F0E0      		ldi r31,hi8(zombie+16)
 1211 027e FF06      		cpc r15,r31
 1212 0280 01F4      		brne .L64
 1213               	.LBE73:
 1214               	.LSM165:
 1215 0282 0E94 0000 		call drawScreen
 1216               	.LSM166:
 1217 0286 0E94 0000 		call refresh
 1218 028a 00C0      		rjmp .L65
 1219               	.LFE7:
 1221               	.global	LEFT
 1222               	.global	LEFT
 1223               		.section .bss
 1226               	LEFT:
 1227 0000 0000      		.skip 2,0
 1228               	.global	RIGHT
 1229               	.global	RIGHT
 1232               	RIGHT:
 1233 0002 0000      		.skip 2,0
 1234               	.global	screen_x
 1235               		.data
 1238               	screen_x:
 1239 0042 5300      		.word	83
 1240               	.global	screen_x_Full
 1243               	screen_x_Full:
 1244 0044 5300      		.word	83
 1245               	.global	screen_y
 1248               	screen_y:
 1249 0046 2F00      		.word	47
 1250               	.global	screen_y_Full
 1253               	screen_y_Full:
 1254 0048 2F00      		.word	47
 1255               	.global	charWidth
 1258               	charWidth:
 1259 004a 0800      		.word	8
 1260               	.global	charHeight
 1263               	charHeight:
 1264 004c 0800      		.word	8
 1265               	.global	previousLEFT
 1266               	.global	previousLEFT
 1267               		.section .bss
 1270               	previousLEFT:
 1271 0004 0000      		.skip 2,0
 1272               	.global	previousRIGHT
 1273               	.global	previousRIGHT
 1276               	previousRIGHT:
 1277 0006 0000      		.skip 2,0
 1278               	.global	buttonPressed
 1279               	.global	buttonPressed
 1282               	buttonPressed:
 1283 0008 0000      		.skip 2,0
 1284               	.global	previousButton
 1285               	.global	previousButton
 1288               	previousButton:
 1289 000a 0000      		.skip 2,0
 1290               	.global	Direction
 1291               		.data
 1294               	Direction:
 1295 004e 0100      		.word	1
 1296               	.global	clockCounter
 1297               	.global	clockCounter
 1298               		.section .bss
 1301               	clockCounter:
 1302 000c 0000      		.skip 2,0
 1303               	.global	GAMEON
 1304               	.global	GAMEON
 1307               	GAMEON:
 1308 000e 0000      		.skip 2,0
 1309               	.global	HeroX
 1310               		.data
 1313               	HeroX:
 1314 0050 0100      		.word	1
 1315               	.global	HeroY
 1316               	.global	HeroY
 1317               		.section .bss
 1320               	HeroY:
 1321 0010 0000      		.skip 2,0
 1322               	.global	width
 1323               		.data
 1326               	width:
 1327 0052 03        		.byte	3
 1328               	.global	height
 1331               	height:
 1332 0053 03        		.byte	3
 1333               	.global	Lives
 1336               	Lives:
 1337 0054 0300      		.word	3
 1338               	.global	Score
 1339               	.global	Score
 1340               		.section .bss
 1343               	Score:
 1344 0012 0000      		.skip 2,0
 1345               		.data
 1348               	C.1.1752:
 1349 0056 E0        		.byte	-32
 1350 0057 40        		.byte	64
 1351 0058 E0        		.byte	-32
 1354               	C.0.1751:
 1355 0059 A0        		.byte	-96
 1356 005a E0        		.byte	-32
 1357 005b A0        		.byte	-96
 1358               		.comm my_pointer,2,1
 1359               		.comm my_pointer2,2,1
 1360               		.comm zombie,16,1
 1473               	.Letext0:
DEFINED SYMBOLS
                            *ABS*:00000000 solution.c
C:\cygwin\tmp/ccuZ0eq7.s:2      *ABS*:0000003f __SREG__
C:\cygwin\tmp/ccuZ0eq7.s:3      *ABS*:0000003e __SP_H__
C:\cygwin\tmp/ccuZ0eq7.s:4      *ABS*:0000003d __SP_L__
C:\cygwin\tmp/ccuZ0eq7.s:5      *ABS*:00000034 __CCP__
C:\cygwin\tmp/ccuZ0eq7.s:6      *ABS*:00000000 __tmp_reg__
C:\cygwin\tmp/ccuZ0eq7.s:7      *ABS*:00000001 __zero_reg__
C:\cygwin\tmp/ccuZ0eq7.s:19     .text.buttonCheck:00000000 buttonCheck
C:\cygwin\tmp/ccuZ0eq7.s:1232   .bss:00000002 RIGHT
C:\cygwin\tmp/ccuZ0eq7.s:1226   .bss:00000000 LEFT
C:\cygwin\tmp/ccuZ0eq7.s:117    .text.PinChangeInit:00000000 PinChangeInit
C:\cygwin\tmp/ccuZ0eq7.s:158    .text.__vector_9:00000000 __vector_9
C:\cygwin\tmp/ccuZ0eq7.s:207    .text.TimerInit:00000000 TimerInit
C:\cygwin\tmp/ccuZ0eq7.s:248    .text.heroForward:00000000 heroForward
C:\cygwin\tmp/ccuZ0eq7.s:1294   .data:0000004e Direction
C:\cygwin\tmp/ccuZ0eq7.s:1320   .bss:00000010 HeroY
C:\cygwin\tmp/ccuZ0eq7.s:1313   .data:00000050 HeroX
                            *COM*:00000002 my_pointer
C:\cygwin\tmp/ccuZ0eq7.s:1248   .data:00000046 screen_y
C:\cygwin\tmp/ccuZ0eq7.s:1238   .data:00000042 screen_x
C:\cygwin\tmp/ccuZ0eq7.s:448    .text.__vector_23:00000000 __vector_23
C:\cygwin\tmp/ccuZ0eq7.s:1301   .bss:0000000c clockCounter
C:\cygwin\tmp/ccuZ0eq7.s:1307   .bss:0000000e GAMEON
C:\cygwin\tmp/ccuZ0eq7.s:522    .text.drawScreen:00000000 drawScreen
C:\cygwin\tmp/ccuZ0eq7.s:1243   .data:00000044 screen_x_Full
C:\cygwin\tmp/ccuZ0eq7.s:1253   .data:00000048 screen_y_Full
C:\cygwin\tmp/ccuZ0eq7.s:1336   .data:00000054 Lives
C:\cygwin\tmp/ccuZ0eq7.s:1343   .bss:00000012 Score
C:\cygwin\tmp/ccuZ0eq7.s:590    .text.seedWithButtonPress:00000000 seedWithButtonPress
C:\cygwin\tmp/ccuZ0eq7.s:634    .text.randInRange:00000000 randInRange
C:\cygwin\tmp/ccuZ0eq7.s:677    .text.CountDown:00000000 CountDown
C:\cygwin\tmp/ccuZ0eq7.s:765    .text.setupGame:00000000 setupGame
C:\cygwin\tmp/ccuZ0eq7.s:832    .text.main:00000000 main
C:\cygwin\tmp/ccuZ0eq7.s:1354   .data:00000059 C.0.1751
C:\cygwin\tmp/ccuZ0eq7.s:1348   .data:00000056 C.1.1752
C:\cygwin\tmp/ccuZ0eq7.s:1326   .data:00000052 width
C:\cygwin\tmp/ccuZ0eq7.s:1331   .data:00000053 height
                            *COM*:00000010 zombie
C:\cygwin\tmp/ccuZ0eq7.s:1258   .data:0000004a charWidth
C:\cygwin\tmp/ccuZ0eq7.s:1263   .data:0000004c charHeight
C:\cygwin\tmp/ccuZ0eq7.s:1270   .bss:00000004 previousLEFT
C:\cygwin\tmp/ccuZ0eq7.s:1276   .bss:00000006 previousRIGHT
C:\cygwin\tmp/ccuZ0eq7.s:1282   .bss:00000008 buttonPressed
C:\cygwin\tmp/ccuZ0eq7.s:1288   .bss:0000000a previousButton
                            *COM*:00000002 my_pointer2

UNDEFINED SYMBOLS
__floatsisf
__gtsf2
__ltsf2
__addsf3
draw_line
draw_string
draw_character
srand
rand
__divmodhi4
clear
refresh
LCDInitialise
init_sprite
draw_sprite
__do_copy_data
__do_clear_bss
