   1               		.file	"solution.c"
   2               	__SREG__ = 0x3f
   3               	__SP_H__ = 0x3e
   4               	__SP_L__ = 0x3d
   5               	__CCP__  = 0x34
   6               	__tmp_reg__ = 0
   7               	__zero_reg__ = 1
  15               	.Ltext0:
  16               		.section	.text.buttonCheck,"ax",@progbits
  17               	.global	buttonCheck
  19               	buttonCheck:
  20               	.LFB10:
  21               	.LSM0:
  22               	/* prologue: function */
  23               	/* frame size = 0 */
  24               	.LSM1:
  25 0000 1092 0000 		sts (RIGHT)+1,__zero_reg__
  26 0004 1092 0000 		sts RIGHT,__zero_reg__
  27 0008 1092 0000 		sts (LEFT)+1,__zero_reg__
  28 000c 1092 0000 		sts LEFT,__zero_reg__
  29               	.LSM2:
  30 0010 199B      		sbis 35-32,1
  31 0012 00C0      		rjmp .L2
  32 0014 84EF      		ldi r24,lo8(500)
  33 0016 91E0      		ldi r25,hi8(500)
  34               	.LVL0:
  35               	.LBB60:
  36               	.LBB61:
  37               	.LBB62:
  38               	.LBB63:
  39               	.LSM3:
  40 0018 20E9      		ldi r18,lo8(400)
  41 001a 31E0      		ldi r19,hi8(400)
  42               	.L3:
  43 001c F901      		movw r30,r18
  44               	.LVL1:
  45               	/* #APP */
  46               	 ;  105 "c:/winavr-20100110/lib/gcc/../../avr/include/util/delay_basic.h" 1
  47 001e 3197      		1: sbiw r30,1
  48 0020 01F4      		brne 1b
  49               	 ;  0 "" 2
  50               	/* #NOAPP */
  51               	.LBE63:
  52               	.LBE62:
  53               	.LSM4:
  54 0022 0197      		sbiw r24,1
  55               	.LSM5:
  56 0024 01F4      		brne .L3
  57               	.LBE61:
  58               	.LBE60:
  59               	.LSM6:
  60 0026 199B      		sbis 35-32,1
  61 0028 00C0      		rjmp .L2
  62               	.LSM7:
  63 002a 81E0      		ldi r24,lo8(1)
  64 002c 90E0      		ldi r25,hi8(1)
  65               	.LVL2:
  66 002e 9093 0000 		sts (RIGHT)+1,r25
  67 0032 8093 0000 		sts RIGHT,r24
  68               	.LVL3:
  69               	.L2:
  70               	.LSM8:
  71 0036 189B      		sbis 35-32,0
  72 0038 00C0      		rjmp .L6
  73 003a 84EF      		ldi r24,lo8(500)
  74 003c 91E0      		ldi r25,hi8(500)
  75               	.LVL4:
  76               	.LBB64:
  77               	.LBB65:
  78               	.LBB66:
  79               	.LBB67:
  80               	.LSM9:
  81 003e 20E9      		ldi r18,lo8(400)
  82 0040 31E0      		ldi r19,hi8(400)
  83               	.L5:
  84 0042 F901      		movw r30,r18
  85               	.LVL5:
  86               	/* #APP */
  87               	 ;  105 "c:/winavr-20100110/lib/gcc/../../avr/include/util/delay_basic.h" 1
  88 0044 3197      		1: sbiw r30,1
  89 0046 01F4      		brne 1b
  90               	 ;  0 "" 2
  91               	/* #NOAPP */
  92               	.LBE67:
  93               	.LBE66:
  94               	.LSM10:
  95 0048 0197      		sbiw r24,1
  96               	.LSM11:
  97 004a 01F4      		brne .L5
  98               	.LBE65:
  99               	.LBE64:
 100               	.LSM12:
 101 004c 189B      		sbis 35-32,0
 102 004e 00C0      		rjmp .L6
 103               	.LSM13:
 104 0050 81E0      		ldi r24,lo8(1)
 105 0052 90E0      		ldi r25,hi8(1)
 106               	.LVL6:
 107 0054 9093 0000 		sts (LEFT)+1,r25
 108 0058 8093 0000 		sts LEFT,r24
 109               	.LVL7:
 110               	.L6:
 111 005c 0895      		ret
 112               	.LFE10:
 114               		.section	.text.PinChangeInit,"ax",@progbits
 115               	.global	PinChangeInit
 117               	PinChangeInit:
 118               	.LFB13:
 119               	.LSM14:
 120               	/* prologue: function */
 121               	/* frame size = 0 */
 122               	.LSM15:
 123 0000 EBE6      		ldi r30,lo8(107)
 124 0002 F0E0      		ldi r31,hi8(107)
 125 0004 8081      		ld r24,Z
 126 0006 8160      		ori r24,lo8(1)
 127 0008 8083      		st Z,r24
 128               	.LSM16:
 129 000a 8081      		ld r24,Z
 130 000c 8260      		ori r24,lo8(2)
 131 000e 8083      		st Z,r24
 132               	.LSM17:
 133 0010 E8E6      		ldi r30,lo8(104)
 134 0012 F0E0      		ldi r31,hi8(104)
 135 0014 8081      		ld r24,Z
 136 0016 8160      		ori r24,lo8(1)
 137 0018 8083      		st Z,r24
 138               	.LSM18:
 139 001a E9E6      		ldi r30,lo8(105)
 140 001c F0E0      		ldi r31,hi8(105)
 141 001e 8081      		ld r24,Z
 142 0020 8160      		ori r24,lo8(1)
 143 0022 8083      		st Z,r24
 144               	.LSM19:
 145               	/* #APP */
 146               	 ;  308 "solution.c" 1
 147 0024 7894      		sei
 148               	 ;  0 "" 2
 149               	/* epilogue start */
 150               	.LSM20:
 151               	/* #NOAPP */
 152 0026 0895      		ret
 153               	.LFE13:
 155               		.section	.text.__vector_9,"ax",@progbits
 156               	.global	__vector_9
 158               	__vector_9:
 159               	.LFB14:
 160               	.LSM21:
 161 0000 1F92      		push __zero_reg__
 162 0002 0F92      		push r0
 163 0004 0FB6      		in r0,__SREG__
 164 0006 0F92      		push r0
 165 0008 1124      		clr __zero_reg__
 166 000a 8F93      		push r24
 167 000c 9F93      		push r25
 168               	/* prologue: Signal */
 169               	/* frame size = 0 */
 170               	.LSM22:
 171 000e 1092 0000 		sts (RIGHT)+1,__zero_reg__
 172 0012 1092 0000 		sts RIGHT,__zero_reg__
 173 0016 1092 0000 		sts (LEFT)+1,__zero_reg__
 174 001a 1092 0000 		sts LEFT,__zero_reg__
 175               	.LSM23:
 176 001e 199B      		sbis 35-32,1
 177 0020 00C0      		rjmp .L12
 178               	.LSM24:
 179 0022 81E0      		ldi r24,lo8(1)
 180 0024 90E0      		ldi r25,hi8(1)
 181 0026 9093 0000 		sts (RIGHT)+1,r25
 182 002a 8093 0000 		sts RIGHT,r24
 183               	.L12:
 184               	.LSM25:
 185 002e 189B      		sbis 35-32,0
 186 0030 00C0      		rjmp .L14
 187               	.LSM26:
 188 0032 81E0      		ldi r24,lo8(1)
 189 0034 90E0      		ldi r25,hi8(1)
 190 0036 9093 0000 		sts (LEFT)+1,r25
 191 003a 8093 0000 		sts LEFT,r24
 192               	.L14:
 193               	/* epilogue start */
 194               	.LSM27:
 195 003e 9F91      		pop r25
 196 0040 8F91      		pop r24
 197 0042 0F90      		pop r0
 198 0044 0FBE      		out __SREG__,r0
 199 0046 0F90      		pop r0
 200 0048 1F90      		pop __zero_reg__
 201 004a 1895      		reti
 202               	.LFE14:
 204               		.section	.text.TimerInit,"ax",@progbits
 205               	.global	TimerInit
 207               	TimerInit:
 208               	.LFB15:
 209               	.LSM28:
 210               	/* prologue: function */
 211               	/* frame size = 0 */
 212               	.LSM29:
 213 0000 84B5      		in r24,68-32
 214 0002 8D7F      		andi r24,lo8(-3)
 215 0004 84BD      		out 68-32,r24
 216               	.LSM30:
 217 0006 85B5      		in r24,69-32
 218 0008 877F      		andi r24,lo8(-9)
 219 000a 85BD      		out 69-32,r24
 220               	.LSM31:
 221 000c 85B5      		in r24,69-32
 222 000e 8560      		ori r24,lo8(5)
 223 0010 85BD      		out 69-32,r24
 224               	.LSM32:
 225 0012 85B5      		in r24,69-32
 226 0014 8D7F      		andi r24,lo8(-3)
 227 0016 85BD      		out 69-32,r24
 228               	.LSM33:
 229 0018 EEE6      		ldi r30,lo8(110)
 230 001a F0E0      		ldi r31,hi8(110)
 231 001c 8081      		ld r24,Z
 232 001e 8160      		ori r24,lo8(1)
 233 0020 8083      		st Z,r24
 234               	.LSM34:
 235               	/* #APP */
 236               	 ;  370 "solution.c" 1
 237 0022 7894      		sei
 238               	 ;  0 "" 2
 239               	/* epilogue start */
 240               	.LSM35:
 241               	/* #NOAPP */
 242 0024 0895      		ret
 243               	.LFE15:
 245               		.section	.text.setupHero,"ax",@progbits
 246               	.global	setupHero
 248               	setupHero:
 249               	.LFB21:
 250               	.LSM36:
 251 0000 CF92      		push r12
 252 0002 DF92      		push r13
 253 0004 EF92      		push r14
 254 0006 FF92      		push r15
 255 0008 0F93      		push r16
 256 000a 1F93      		push r17
 257               	/* prologue: function */
 258               	/* frame size = 0 */
 259               	.LSM37:
 260 000c 8091 0000 		lds r24,screen_y
 261 0010 9091 0000 		lds r25,(screen_y)+1
 262 0014 62E0      		ldi r22,lo8(2)
 263 0016 70E0      		ldi r23,hi8(2)
 264 0018 0E94 0000 		call __divmodhi4
 265 001c 7B01      		movw r14,r22
 266               	.LVL8:
 267 001e 85E0      		ldi r24,lo8(5)
 268 0020 90E0      		ldi r25,hi8(5)
 269 0022 E80E      		add r14,r24
 270 0024 F91E      		adc r15,r25
 271               	.LSM38:
 272 0026 C090 0000 		lds r12,my_pointer
 273 002a D090 0000 		lds r13,(my_pointer)+1
 274 002e 8091 0000 		lds r24,screen_x
 275 0032 9091 0000 		lds r25,(screen_x)+1
 276 0036 62E0      		ldi r22,lo8(2)
 277 0038 70E0      		ldi r23,hi8(2)
 278 003a 0E94 0000 		call __divmodhi4
 279 003e 8827      		clr r24
 280 0040 77FD      		sbrc r23,7
 281 0042 8095      		com r24
 282 0044 982F      		mov r25,r24
 283 0046 0E94 0000 		call __floatsisf
 284 004a F601      		movw r30,r12
 285 004c 6083      		st Z,r22
 286 004e 7183      		std Z+1,r23
 287 0050 8283      		std Z+2,r24
 288 0052 9383      		std Z+3,r25
 289               	.LSM39:
 290 0054 0027      		clr r16
 291 0056 F7FC      		sbrc r15,7
 292 0058 0095      		com r16
 293 005a 102F      		mov r17,r16
 294               	.LVL9:
 295 005c C801      		movw r24,r16
 296 005e B701      		movw r22,r14
 297 0060 0E94 0000 		call __floatsisf
 298 0064 F601      		movw r30,r12
 299 0066 6483      		std Z+4,r22
 300 0068 7583      		std Z+5,r23
 301 006a 8683      		std Z+6,r24
 302 006c 9783      		std Z+7,r25
 303               	/* epilogue start */
 304               	.LSM40:
 305 006e 1F91      		pop r17
 306 0070 0F91      		pop r16
 307 0072 FF90      		pop r15
 308 0074 EF90      		pop r14
 309               	.LVL10:
 310 0076 DF90      		pop r13
 311 0078 CF90      		pop r12
 312 007a 0895      		ret
 313               	.LFE21:
 315               		.section	.text.isInPit,"ax",@progbits
 316               	.global	isInPit
 318               	isInPit:
 319               	.LFB25:
 320               	.LSM41:
 321               	.LVL11:
 322 0000 0F93      		push r16
 323 0002 1F93      		push r17
 324               	/* prologue: function */
 325               	/* frame size = 0 */
 326 0004 8C01      		movw r16,r24
 327               	.LSM42:
 328 0006 DC01      		movw r26,r24
 329 0008 6D91      		ld r22,X+
 330 000a 7D91      		ld r23,X+
 331 000c 8D91      		ld r24,X+
 332 000e 9C91      		ld r25,X
 333 0010 0E94 0000 		call __fixsfsi
 334               	.LVL12:
 335 0014 FB01      		movw r30,r22
 336               	.LVL13:
 337               	.LSM43:
 338 0016 D801      		movw r26,r16
 339 0018 1496      		adiw r26,4
 340 001a 4D91      		ld r20,X+
 341 001c 5D91      		ld r21,X+
 342 001e 6D91      		ld r22,X+
 343 0020 7C91      		ld r23,X
 344 0022 1797      		sbiw r26,4+3
 345               	.LSM44:
 346 0024 8091 0000 		lds r24,pitLeft
 347 0028 9091 0000 		lds r25,(pitLeft)+1
 348 002c 8E17      		cp r24,r30
 349 002e 9F07      		cpc r25,r31
 350 0030 04F4      		brge .L20
 351 0032 2091 0000 		lds r18,width
 352 0036 8091 0000 		lds r24,pitRight
 353 003a 9091 0000 		lds r25,(pitRight)+1
 354 003e 821B      		sub r24,r18
 355 0040 9109      		sbc r25,__zero_reg__
 356 0042 8E17      		cp r24,r30
 357 0044 9F07      		cpc r25,r31
 358 0046 04F0      		brlt .L20
 359               	.LSM45:
 360 0048 CB01      		movw r24,r22
 361 004a BA01      		movw r22,r20
 362 004c 0E94 0000 		call __fixsfsi
 363               	.LVL14:
 364               	.LSM46:
 365 0050 8091 0000 		lds r24,pitTop
 366 0054 9091 0000 		lds r25,(pitTop)+1
 367 0058 8617      		cp r24,r22
 368 005a 9707      		cpc r25,r23
 369               	.LVL15:
 370 005c 04F4      		brge .L20
 371 005e 30E0      		ldi r19,lo8(0)
 372 0060 2091 0000 		lds r18,height
 373 0064 8091 0000 		lds r24,pitBottom
 374 0068 9091 0000 		lds r25,(pitBottom)+1
 375 006c 821B      		sub r24,r18
 376 006e 9109      		sbc r25,__zero_reg__
 377 0070 8617      		cp r24,r22
 378 0072 9707      		cpc r25,r23
 379 0074 04F4      		brge .L21
 380 0076 31E0      		ldi r19,lo8(1)
 381               	.L21:
 382 0078 81E0      		ldi r24,lo8(1)
 383 007a 3827      		eor r19,r24
 384 007c 232F      		mov r18,r19
 385 007e 30E0      		ldi r19,lo8(0)
 386 0080 00C0      		rjmp .L22
 387               	.LVL16:
 388               	.L20:
 389 0082 20E0      		ldi r18,lo8(0)
 390 0084 30E0      		ldi r19,hi8(0)
 391               	.L22:
 392               	.LSM47:
 393 0086 C901      		movw r24,r18
 394               	/* epilogue start */
 395 0088 1F91      		pop r17
 396 008a 0F91      		pop r16
 397               	.LVL17:
 398 008c 0895      		ret
 399               	.LFE25:
 401               		.section	.text.heroForward,"ax",@progbits
 402               	.global	heroForward
 404               	heroForward:
 405               	.LFB17:
 406               	.LSM48:
 407 0000 6F92      		push r6
 408 0002 7F92      		push r7
 409 0004 8F92      		push r8
 410 0006 9F92      		push r9
 411 0008 AF92      		push r10
 412 000a BF92      		push r11
 413 000c CF92      		push r12
 414 000e DF92      		push r13
 415 0010 EF92      		push r14
 416 0012 FF92      		push r15
 417 0014 0F93      		push r16
 418 0016 1F93      		push r17
 419 0018 CF93      		push r28
 420 001a DF93      		push r29
 421               	/* prologue: function */
 422               	/* frame size = 0 */
 423               	.LSM49:
 424 001c C091 0000 		lds r28,my_pointer
 425 0020 D091 0000 		lds r29,(my_pointer)+1
 426 0024 CE01      		movw r24,r28
 427 0026 0E94 0000 		call isInPit
 428 002a 892B      		or r24,r25
 429 002c 01F0      		breq .L25
 430               	.LSM50:
 431 002e 6090 0000 		lds r6,pitTop
 432 0032 7090 0000 		lds r7,(pitTop)+1
 433               	.LVL18:
 434 0036 82E0      		ldi r24,lo8(2)
 435 0038 90E0      		ldi r25,hi8(2)
 436 003a 680E      		add r6,r24
 437 003c 791E      		adc r7,r25
 438               	.LSM51:
 439 003e 8090 0000 		lds r8,pitBottom
 440 0042 9090 0000 		lds r9,(pitBottom)+1
 441               	.LVL19:
 442 0046 8CEF      		ldi r24,lo8(-4)
 443 0048 9FEF      		ldi r25,hi8(-4)
 444 004a 880E      		add r8,r24
 445 004c 991E      		adc r9,r25
 446               	.LSM52:
 447 004e A090 0000 		lds r10,pitLeft
 448 0052 B090 0000 		lds r11,(pitLeft)+1
 449               	.LVL20:
 450 0056 82E0      		ldi r24,lo8(2)
 451 0058 90E0      		ldi r25,hi8(2)
 452 005a A80E      		add r10,r24
 453 005c B91E      		adc r11,r25
 454               	.LSM53:
 455 005e 0091 0000 		lds r16,pitRight
 456 0062 1091 0000 		lds r17,(pitRight)+1
 457               	.LVL21:
 458 0066 0450      		subi r16,lo8(-(-4))
 459 0068 1040      		sbci r17,hi8(-(-4))
 460 006a 00C0      		rjmp .L26
 461               	.LVL22:
 462               	.L25:
 463               	.LSM54:
 464 006c 8090 0000 		lds r8,screen_y
 465 0070 9090 0000 		lds r9,(screen_y)+1
 466               	.LVL23:
 467 0074 0894      		sec
 468 0076 8108      		sbc r8,__zero_reg__
 469 0078 9108      		sbc r9,__zero_reg__
 470               	.LSM55:
 471 007a 0091 0000 		lds r16,screen_x
 472 007e 1091 0000 		lds r17,(screen_x)+1
 473               	.LVL24:
 474 0082 0150      		subi r16,lo8(-(-1))
 475 0084 1040      		sbci r17,hi8(-(-1))
 476 0086 4AE0      		ldi r20,lo8(10)
 477 0088 642E      		mov r6,r20
 478 008a 712C      		mov r7,__zero_reg__
 479               	.LVL25:
 480 008c 32E0      		ldi r19,lo8(2)
 481 008e A32E      		mov r10,r19
 482 0090 B12C      		mov r11,__zero_reg__
 483               	.LVL26:
 484               	.L26:
 485               	.LSM56:
 486 0092 8091 0000 		lds r24,Direction
 487 0096 9091 0000 		lds r25,(Direction)+1
 488 009a 892B      		or r24,r25
 489 009c 01F0      		breq .L27
 490 009e 21E0      		ldi r18,lo8(1)
 491 00a0 C22E      		mov r12,r18
 492 00a2 D12C      		mov r13,__zero_reg__
 493               	.LVL27:
 494 00a4 00C0      		rjmp .L53
 495               	.LVL28:
 496               	.L27:
 497               	.LSM57:
 498 00a6 B401      		movw r22,r8
 499 00a8 8827      		clr r24
 500 00aa 77FD      		sbrc r23,7
 501 00ac 8095      		com r24
 502 00ae 982F      		mov r25,r24
 503               	.LVL29:
 504 00b0 0E94 0000 		call __floatsisf
 505               	.LVL30:
 506 00b4 9B01      		movw r18,r22
 507 00b6 AC01      		movw r20,r24
 508 00b8 6C81      		ldd r22,Y+4
 509 00ba 7D81      		ldd r23,Y+5
 510 00bc 8E81      		ldd r24,Y+6
 511 00be 9F81      		ldd r25,Y+7
 512 00c0 0E94 0000 		call __gtsf2
 513 00c4 1816      		cp __zero_reg__,r24
 514 00c6 04F4      		brge .L49
 515 00c8 CC24      		clr r12
 516 00ca DD24      		clr r13
 517               	.LVL31:
 518               	.L53:
 519 00cc EE24      		clr r14
 520 00ce FF24      		clr r15
 521               	.LVL32:
 522 00d0 00C0      		rjmp .L28
 523               	.LVL33:
 524               	.L49:
 525 00d2 CC24      		clr r12
 526 00d4 DD24      		clr r13
 527               	.LVL34:
 528 00d6 91E0      		ldi r25,lo8(1)
 529 00d8 E92E      		mov r14,r25
 530 00da F12C      		mov r15,__zero_reg__
 531               	.LVL35:
 532               	.L28:
 533               	.LSM58:
 534 00dc 8091 0000 		lds r24,Direction
 535 00e0 9091 0000 		lds r25,(Direction)+1
 536 00e4 0197      		sbiw r24,1
 537 00e6 01F4      		brne .L31
 538               	.LSM59:
 539 00e8 B801      		movw r22,r16
 540 00ea 8827      		clr r24
 541 00ec 77FD      		sbrc r23,7
 542 00ee 8095      		com r24
 543 00f0 982F      		mov r25,r24
 544               	.LVL36:
 545 00f2 0E94 0000 		call __floatsisf
 546               	.LVL37:
 547 00f6 9B01      		movw r18,r22
 548 00f8 AC01      		movw r20,r24
 549 00fa 6881      		ld r22,Y
 550 00fc 7981      		ldd r23,Y+1
 551 00fe 8A81      		ldd r24,Y+2
 552 0100 9B81      		ldd r25,Y+3
 553 0102 0E94 0000 		call __gtsf2
 554 0106 1816      		cp __zero_reg__,r24
 555 0108 04F4      		brge .L50
 556 010a CC24      		clr r12
 557 010c DD24      		clr r13
 558 010e 00C0      		rjmp .L54
 559               	.L50:
 560 0110 81E0      		ldi r24,lo8(1)
 561 0112 C82E      		mov r12,r24
 562 0114 D12C      		mov r13,__zero_reg__
 563               	.L54:
 564 0116 EE24      		clr r14
 565 0118 FF24      		clr r15
 566               	.LVL38:
 567               	.L31:
 568               	.LSM60:
 569 011a 8091 0000 		lds r24,Direction
 570 011e 9091 0000 		lds r25,(Direction)+1
 571 0122 0297      		sbiw r24,2
 572 0124 01F4      		brne .L34
 573               	.LSM61:
 574 0126 B301      		movw r22,r6
 575 0128 8827      		clr r24
 576 012a 77FD      		sbrc r23,7
 577 012c 8095      		com r24
 578 012e 982F      		mov r25,r24
 579               	.LVL39:
 580 0130 0E94 0000 		call __floatsisf
 581               	.LVL40:
 582 0134 9B01      		movw r18,r22
 583 0136 AC01      		movw r20,r24
 584 0138 6C81      		ldd r22,Y+4
 585 013a 7D81      		ldd r23,Y+5
 586 013c 8E81      		ldd r24,Y+6
 587 013e 9F81      		ldd r25,Y+7
 588 0140 0E94 0000 		call __ltsf2
 589 0144 8823      		tst r24
 590 0146 04F4      		brge .L51
 591 0148 CC24      		clr r12
 592 014a DD24      		clr r13
 593 014c EE24      		clr r14
 594 014e FF24      		clr r15
 595 0150 00C0      		rjmp .L34
 596               	.L51:
 597 0152 CC24      		clr r12
 598 0154 DD24      		clr r13
 599 0156 EE24      		clr r14
 600 0158 EA94      		dec r14
 601 015a FE2C      		mov r15,r14
 602               	.LVL41:
 603               	.L34:
 604               	.LSM62:
 605 015c 8091 0000 		lds r24,Direction
 606 0160 9091 0000 		lds r25,(Direction)+1
 607 0164 0397      		sbiw r24,3
 608 0166 01F4      		brne .L37
 609               	.LSM63:
 610 0168 B501      		movw r22,r10
 611 016a 8827      		clr r24
 612 016c 77FD      		sbrc r23,7
 613 016e 8095      		com r24
 614 0170 982F      		mov r25,r24
 615               	.LVL42:
 616 0172 0E94 0000 		call __floatsisf
 617               	.LVL43:
 618 0176 9B01      		movw r18,r22
 619 0178 AC01      		movw r20,r24
 620 017a 6881      		ld r22,Y
 621 017c 7981      		ldd r23,Y+1
 622 017e 8A81      		ldd r24,Y+2
 623 0180 9B81      		ldd r25,Y+3
 624 0182 0E94 0000 		call __ltsf2
 625 0186 8823      		tst r24
 626 0188 04F4      		brge .L52
 627 018a CC24      		clr r12
 628 018c DD24      		clr r13
 629 018e 00C0      		rjmp .L55
 630               	.L52:
 631 0190 CC24      		clr r12
 632 0192 CA94      		dec r12
 633 0194 DC2C      		mov r13,r12
 634               	.L55:
 635 0196 EE24      		clr r14
 636 0198 FF24      		clr r15
 637               	.LVL44:
 638               	.L37:
 639               	.LSM64:
 640 019a 6881      		ld r22,Y
 641 019c 7981      		ldd r23,Y+1
 642 019e 8A81      		ldd r24,Y+2
 643 01a0 9B81      		ldd r25,Y+3
 644 01a2 0E94 0000 		call __fixsfsi
 645               	.LSM65:
 646 01a6 2C81      		ldd r18,Y+4
 647 01a8 3D81      		ldd r19,Y+5
 648 01aa 4E81      		ldd r20,Y+6
 649 01ac 5F81      		ldd r21,Y+7
 650               	.LSM66:
 651 01ae 8091 0000 		lds r24,LEFT
 652 01b2 9091 0000 		lds r25,(LEFT)+1
 653 01b6 892B      		or r24,r25
 654 01b8 01F0      		breq .L40
 655 01ba 8091 0000 		lds r24,RIGHT
 656 01be 9091 0000 		lds r25,(RIGHT)+1
 657 01c2 892B      		or r24,r25
 658 01c4 01F0      		breq .L40
 659 01c6 0617      		cp r16,r22
 660 01c8 1707      		cpc r17,r23
 661               	.LVL45:
 662 01ca 04F4      		brge .L40
 663               	.LSM67:
 664 01cc 0C5F      		subi r16,lo8(-(4))
 665 01ce 1F4F      		sbci r17,hi8(-(4))
 666 01d0 B801      		movw r22,r16
 667 01d2 8827      		clr r24
 668 01d4 77FD      		sbrc r23,7
 669 01d6 8095      		com r24
 670 01d8 982F      		mov r25,r24
 671               	.LVL46:
 672 01da 00C0      		rjmp .L56
 673               	.LVL47:
 674               	.L40:
 675               	.LSM68:
 676 01dc 8091 0000 		lds r24,LEFT
 677 01e0 9091 0000 		lds r25,(LEFT)+1
 678 01e4 892B      		or r24,r25
 679 01e6 01F0      		breq .L42
 680 01e8 8091 0000 		lds r24,RIGHT
 681 01ec 9091 0000 		lds r25,(RIGHT)+1
 682 01f0 892B      		or r24,r25
 683 01f2 01F0      		breq .L42
 684 01f4 6A15      		cp r22,r10
 685 01f6 7B05      		cpc r23,r11
 686 01f8 04F4      		brge .L42
 687               	.LSM69:
 688 01fa 8CEF      		ldi r24,lo8(-4)
 689 01fc 9FEF      		ldi r25,hi8(-4)
 690 01fe A80E      		add r10,r24
 691 0200 B91E      		adc r11,r25
 692 0202 B501      		movw r22,r10
 693 0204 8827      		clr r24
 694 0206 77FD      		sbrc r23,7
 695 0208 8095      		com r24
 696 020a 982F      		mov r25,r24
 697               	.LVL48:
 698               	.L56:
 699 020c 0E94 0000 		call __floatsisf
 700 0210 6883      		st Y,r22
 701 0212 7983      		std Y+1,r23
 702 0214 8A83      		std Y+2,r24
 703 0216 9B83      		std Y+3,r25
 704 0218 00C0      		rjmp .L41
 705               	.LVL49:
 706               	.L42:
 707               	.LSM70:
 708 021a CA01      		movw r24,r20
 709 021c B901      		movw r22,r18
 710               	.LVL50:
 711 021e 0E94 0000 		call __fixsfsi
 712               	.LSM71:
 713 0222 8091 0000 		lds r24,LEFT
 714 0226 9091 0000 		lds r25,(LEFT)+1
 715 022a 892B      		or r24,r25
 716 022c 01F0      		breq .L43
 717 022e 8091 0000 		lds r24,RIGHT
 718 0232 9091 0000 		lds r25,(RIGHT)+1
 719 0236 892B      		or r24,r25
 720 0238 01F0      		breq .L43
 721 023a 6615      		cp r22,r6
 722 023c 7705      		cpc r23,r7
 723               	.LVL51:
 724 023e 04F4      		brge .L43
 725               	.LSM72:
 726 0240 8CEF      		ldi r24,lo8(-4)
 727 0242 9FEF      		ldi r25,hi8(-4)
 728 0244 680E      		add r6,r24
 729 0246 791E      		adc r7,r25
 730 0248 B301      		movw r22,r6
 731 024a 8827      		clr r24
 732 024c 77FD      		sbrc r23,7
 733 024e 8095      		com r24
 734 0250 982F      		mov r25,r24
 735               	.LVL52:
 736 0252 00C0      		rjmp .L57
 737               	.LVL53:
 738               	.L43:
 739               	.LSM73:
 740 0254 8091 0000 		lds r24,LEFT
 741 0258 9091 0000 		lds r25,(LEFT)+1
 742 025c 892B      		or r24,r25
 743 025e 01F0      		breq .L41
 744 0260 8091 0000 		lds r24,RIGHT
 745 0264 9091 0000 		lds r25,(RIGHT)+1
 746 0268 892B      		or r24,r25
 747 026a 01F0      		breq .L41
 748 026c 8616      		cp r8,r22
 749 026e 9706      		cpc r9,r23
 750 0270 04F4      		brge .L41
 751               	.LSM74:
 752 0272 84E0      		ldi r24,lo8(4)
 753 0274 90E0      		ldi r25,hi8(4)
 754 0276 880E      		add r8,r24
 755 0278 991E      		adc r9,r25
 756 027a B401      		movw r22,r8
 757 027c 8827      		clr r24
 758 027e 77FD      		sbrc r23,7
 759 0280 8095      		com r24
 760 0282 982F      		mov r25,r24
 761               	.LVL54:
 762               	.L57:
 763 0284 0E94 0000 		call __floatsisf
 764 0288 6C83      		std Y+4,r22
 765 028a 7D83      		std Y+5,r23
 766 028c 8E83      		std Y+6,r24
 767 028e 9F83      		std Y+7,r25
 768               	.LVL55:
 769               	.L41:
 770               	.LSM75:
 771 0290 B601      		movw r22,r12
 772 0292 8827      		clr r24
 773 0294 77FD      		sbrc r23,7
 774 0296 8095      		com r24
 775 0298 982F      		mov r25,r24
 776               	.LVL56:
 777 029a 0E94 0000 		call __floatsisf
 778               	.LVL57:
 779 029e 9B01      		movw r18,r22
 780 02a0 AC01      		movw r20,r24
 781 02a2 6881      		ld r22,Y
 782 02a4 7981      		ldd r23,Y+1
 783 02a6 8A81      		ldd r24,Y+2
 784 02a8 9B81      		ldd r25,Y+3
 785 02aa 0E94 0000 		call __addsf3
 786 02ae 6883      		st Y,r22
 787 02b0 7983      		std Y+1,r23
 788 02b2 8A83      		std Y+2,r24
 789 02b4 9B83      		std Y+3,r25
 790               	.LSM76:
 791 02b6 B701      		movw r22,r14
 792 02b8 8827      		clr r24
 793 02ba 77FD      		sbrc r23,7
 794 02bc 8095      		com r24
 795 02be 982F      		mov r25,r24
 796               	.LVL58:
 797 02c0 0E94 0000 		call __floatsisf
 798               	.LVL59:
 799 02c4 9B01      		movw r18,r22
 800 02c6 AC01      		movw r20,r24
 801 02c8 6C81      		ldd r22,Y+4
 802 02ca 7D81      		ldd r23,Y+5
 803 02cc 8E81      		ldd r24,Y+6
 804 02ce 9F81      		ldd r25,Y+7
 805 02d0 0E94 0000 		call __addsf3
 806 02d4 6C83      		std Y+4,r22
 807 02d6 7D83      		std Y+5,r23
 808 02d8 8E83      		std Y+6,r24
 809 02da 9F83      		std Y+7,r25
 810               	/* epilogue start */
 811               	.LSM77:
 812 02dc DF91      		pop r29
 813 02de CF91      		pop r28
 814 02e0 1F91      		pop r17
 815 02e2 0F91      		pop r16
 816               	.LVL60:
 817 02e4 FF90      		pop r15
 818 02e6 EF90      		pop r14
 819 02e8 DF90      		pop r13
 820 02ea CF90      		pop r12
 821 02ec BF90      		pop r11
 822 02ee AF90      		pop r10
 823               	.LVL61:
 824 02f0 9F90      		pop r9
 825 02f2 8F90      		pop r8
 826               	.LVL62:
 827 02f4 7F90      		pop r7
 828 02f6 6F90      		pop r6
 829               	.LVL63:
 830 02f8 0895      		ret
 831               	.LFE17:
 833               		.section	.text.drawPit,"ax",@progbits
 834               	.global	drawPit
 836               	drawPit:
 837               	.LFB24:
 838               	.LSM78:
 839               	/* prologue: function */
 840               	/* frame size = 0 */
 841               	.LSM79:
 842 0000 2091 0000 		lds r18,pitTop
 843 0004 8091 0000 		lds r24,pitLeft
 844 0008 622F      		mov r22,r18
 845 000a 4091 0000 		lds r20,pitRight
 846 000e 0E94 0000 		call draw_line
 847               	.LSM80:
 848 0012 2091 0000 		lds r18,pitBottom
 849 0016 8091 0000 		lds r24,pitLeft
 850 001a 622F      		mov r22,r18
 851 001c 4091 0000 		lds r20,pitRight
 852 0020 0E94 0000 		call draw_line
 853               	.LSM81:
 854 0024 4091 0000 		lds r20,pitLeft
 855 0028 842F      		mov r24,r20
 856 002a 6091 0000 		lds r22,pitTop
 857 002e 2091 0000 		lds r18,pitBottom
 858 0032 0E94 0000 		call draw_line
 859               	.LSM82:
 860 0036 4091 0000 		lds r20,pitRight
 861 003a 842F      		mov r24,r20
 862 003c 6091 0000 		lds r22,pitTop
 863 0040 2091 0000 		lds r18,pitBottom
 864 0044 0E94 0000 		call draw_line
 865               	/* epilogue start */
 866               	.LSM83:
 867 0048 0895      		ret
 868               	.LFE24:
 870               		.data
 871               	.LC0:
 872 0000 4C3A 2000 		.string	"L: "
 873               	.LC1:
 874 0004 533A 2000 		.string	"S: "
 875               		.section	.text.drawScreen,"ax",@progbits
 876               	.global	drawScreen
 878               	drawScreen:
 879               	.LFB19:
 880               	.LSM84:
 881               	/* prologue: function */
 882               	/* frame size = 0 */
 883               	.LSM85:
 884 0000 80E0      		ldi r24,lo8(0)
 885 0002 68E0      		ldi r22,lo8(8)
 886 0004 4091 0000 		lds r20,screen_x_Full
 887 0008 28E0      		ldi r18,lo8(8)
 888 000a 0E94 0000 		call draw_line
 889               	.LSM86:
 890 000e 80E0      		ldi r24,lo8(0)
 891 0010 68E0      		ldi r22,lo8(8)
 892 0012 40E0      		ldi r20,lo8(0)
 893 0014 2091 0000 		lds r18,screen_y_Full
 894 0018 0E94 0000 		call draw_line
 895               	.LSM87:
 896 001c 4091 0000 		lds r20,screen_x_Full
 897 0020 842F      		mov r24,r20
 898 0022 68E0      		ldi r22,lo8(8)
 899 0024 2091 0000 		lds r18,screen_y_Full
 900 0028 0E94 0000 		call draw_line
 901               	.LSM88:
 902 002c 2091 0000 		lds r18,screen_y_Full
 903 0030 80E0      		ldi r24,lo8(0)
 904 0032 622F      		mov r22,r18
 905 0034 4091 0000 		lds r20,screen_x_Full
 906 0038 0E94 0000 		call draw_line
 907               	.LSM89:
 908 003c 80E0      		ldi r24,lo8(.LC0)
 909 003e 90E0      		ldi r25,hi8(.LC0)
 910 0040 60E0      		ldi r22,lo8(0)
 911 0042 40E0      		ldi r20,lo8(0)
 912 0044 0E94 0000 		call draw_string
 913               	.LSM90:
 914 0048 8091 0000 		lds r24,Lives
 915 004c 805D      		subi r24,lo8(-(48))
 916 004e 6BE0      		ldi r22,lo8(11)
 917 0050 40E0      		ldi r20,lo8(0)
 918 0052 0E94 0000 		call draw_character
 919               	.LSM91:
 920 0056 80E0      		ldi r24,lo8(.LC1)
 921 0058 90E0      		ldi r25,hi8(.LC1)
 922 005a 65E1      		ldi r22,lo8(21)
 923 005c 40E0      		ldi r20,lo8(0)
 924 005e 0E94 0000 		call draw_string
 925               	.LSM92:
 926 0062 8091 0000 		lds r24,Score
 927 0066 805D      		subi r24,lo8(-(48))
 928 0068 6FE1      		ldi r22,lo8(31)
 929 006a 40E0      		ldi r20,lo8(0)
 930 006c 0E94 0000 		call draw_character
 931               	.LSM93:
 932 0070 8091 0000 		lds r24,Direction
 933 0074 9091 0000 		lds r25,(Direction)+1
 934 0078 805D      		subi r24,lo8(-(48))
 935 007a 6EE4      		ldi r22,lo8(78)
 936 007c 40E0      		ldi r20,lo8(0)
 937 007e 0E94 0000 		call draw_character
 938               	.LSM94:
 939 0082 8091 0000 		lds r24,my_pointer
 940 0086 9091 0000 		lds r25,(my_pointer)+1
 941 008a 0E94 0000 		call isInPit
 942 008e 805D      		subi r24,lo8(-(48))
 943 0090 6CE3      		ldi r22,lo8(60)
 944 0092 40E0      		ldi r20,lo8(0)
 945 0094 0E94 0000 		call draw_character
 946               	/* epilogue start */
 947               	.LSM95:
 948 0098 0895      		ret
 949               	.LFE19:
 951               		.data
 952               	.LC2:
 953 0008 4761 6D65 		.string	"Game Start In: "
 953      2053 7461 
 953      7274 2049 
 953      6E3A 2000 
 954               		.section	.text.CountDown,"ax",@progbits
 955               	.global	CountDown
 957               	CountDown:
 958               	.LFB9:
 959               	.LSM96:
 960 0000 1F93      		push r17
 961 0002 CF93      		push r28
 962 0004 DF93      		push r29
 963               	/* prologue: function */
 964               	/* frame size = 0 */
 965               	.LSM97:
 966 0006 13E3      		ldi r17,lo8(51)
 967               	.LBB68:
 968               	.LBB69:
 969               	.LBB70:
 970               	.LBB71:
 971               	.LBB72:
 972               	.LSM98:
 973 0008 C0E9      		ldi r28,lo8(400)
 974 000a D1E0      		ldi r29,hi8(400)
 975               	.LVL64:
 976               	.L64:
 977               	.LBE72:
 978               	.LBE71:
 979               	.LBE70:
 980               	.LBE69:
 981               	.LSM99:
 982 000c 0E94 0000 		call clear
 983               	.LVL65:
 984               	.LSM100:
 985 0010 80E0      		ldi r24,lo8(.LC2)
 986 0012 90E0      		ldi r25,hi8(.LC2)
 987 0014 62E0      		ldi r22,lo8(2)
 988 0016 46E1      		ldi r20,lo8(22)
 989 0018 0E94 0000 		call draw_string
 990               	.LSM101:
 991 001c 812F      		mov r24,r17
 992 001e 6BE4      		ldi r22,lo8(75)
 993 0020 46E1      		ldi r20,lo8(22)
 994 0022 0E94 0000 		call draw_character
 995               	.LSM102:
 996 0026 0E94 0000 		call refresh
 997 002a 80E1      		ldi r24,lo8(10000)
 998 002c 97E2      		ldi r25,hi8(10000)
 999               	.LVL66:
 1000               	.L63:
 1001               	.LBB76:
 1002               	.LBB75:
 1003               	.LBB74:
 1004               	.LBB73:
 1005               	.LSM103:
 1006 002e FE01      		movw r30,r28
 1007               	.LVL67:
 1008               	/* #APP */
 1009               	 ;  105 "c:/winavr-20100110/lib/gcc/../../avr/include/util/delay_basic.h" 1
 1010 0030 3197      		1: sbiw r30,1
 1011 0032 01F4      		brne 1b
 1012               	 ;  0 "" 2
 1013               	/* #NOAPP */
 1014               	.LBE73:
 1015               	.LBE74:
 1016               	.LSM104:
 1017 0034 0197      		sbiw r24,1
 1018               	.LSM105:
 1019 0036 01F4      		brne .L63
 1020 0038 1150      		subi r17,lo8(-(-1))
 1021               	.LBE75:
 1022               	.LBE76:
 1023               	.LSM106:
 1024 003a 1033      		cpi r17,lo8(48)
 1025 003c 01F4      		brne .L64
 1026               	/* epilogue start */
 1027               	.LBE68:
 1028               	.LSM107:
 1029 003e DF91      		pop r29
 1030 0040 CF91      		pop r28
 1031 0042 1F91      		pop r17
 1032 0044 0895      		ret
 1033               	.LFE9:
 1035               		.section	.text.seedWithButtonPress,"ax",@progbits
 1036               	.global	seedWithButtonPress
 1038               	seedWithButtonPress:
 1039               	.LFB12:
 1040               	.LSM108:
 1041               	/* prologue: function */
 1042               	/* frame size = 0 */
 1043               	.LSM109:
 1044 0000 5E9A      		sbi 43-32,6
 1045               	.LSM110:
 1046 0002 84B1      		in r24,36-32
 1047 0004 8C60      		ori r24,lo8(12)
 1048 0006 84B9      		out 36-32,r24
 1049 0008 20E0      		ldi r18,lo8(0)
 1050 000a 30E0      		ldi r19,hi8(0)
 1051               	.LVL68:
 1052 000c 00C0      		rjmp .L69
 1053               	.L71:
 1054               	.LSM111:
 1055 000e 2F5F      		subi r18,lo8(-(1))
 1056 0010 3F4F      		sbci r19,hi8(-(1))
 1057               	.L69:
 1058               	.LSM112:
 1059 0012 8091 0000 		lds r24,RIGHT
 1060 0016 9091 0000 		lds r25,(RIGHT)+1
 1061 001a 892B      		or r24,r25
 1062 001c 01F4      		brne .L70
 1063 001e 8091 0000 		lds r24,LEFT
 1064 0022 9091 0000 		lds r25,(LEFT)+1
 1065 0026 892B      		or r24,r25
 1066 0028 01F0      		breq .L71
 1067               	.L70:
 1068               	.LSM113:
 1069 002a C901      		movw r24,r18
 1070 002c 0E94 0000 		call srand
 1071               	.LVL69:
 1072               	.LSM114:
 1073 0030 1BB8      		out 43-32,__zero_reg__
 1074               	/* epilogue start */
 1075               	.LSM115:
 1076 0032 0895      		ret
 1077               	.LFE12:
 1079               		.section	.text.randInRange,"ax",@progbits
 1080               	.global	randInRange
 1082               	randInRange:
 1083               	.LFB11:
 1084               	.LSM116:
 1085               	.LVL70:
 1086 0000 EF92      		push r14
 1087 0002 FF92      		push r15
 1088 0004 0F93      		push r16
 1089 0006 1F93      		push r17
 1090               	/* prologue: function */
 1091               	/* frame size = 0 */
 1092 0008 8C01      		movw r16,r24
 1093 000a 7B01      		movw r14,r22
 1094               	.LSM117:
 1095 000c 0E94 0000 		call rand
 1096               	.LVL71:
 1097 0010 E01A      		sub r14,r16
 1098 0012 F10A      		sbc r15,r17
 1099 0014 0894      		sec
 1100 0016 E11C      		adc r14,__zero_reg__
 1101 0018 F11C      		adc r15,__zero_reg__
 1102 001a B701      		movw r22,r14
 1103 001c 0E94 0000 		call __divmodhi4
 1104 0020 9C01      		movw r18,r24
 1105 0022 200F      		add r18,r16
 1106 0024 311F      		adc r19,r17
 1107               	.LSM118:
 1108 0026 C901      		movw r24,r18
 1109               	/* epilogue start */
 1110 0028 1F91      		pop r17
 1111 002a 0F91      		pop r16
 1112               	.LVL72:
 1113 002c FF90      		pop r15
 1114 002e EF90      		pop r14
 1115               	.LVL73:
 1116 0030 0895      		ret
 1117               	.LFE11:
 1119               		.section	.text.setupSword,"ax",@progbits
 1120               	.global	setupSword
 1122               	setupSword:
 1123               	.LFB26:
 1124               	.LSM119:
 1125 0000 8F92      		push r8
 1126 0002 9F92      		push r9
 1127 0004 AF92      		push r10
 1128 0006 BF92      		push r11
 1129 0008 CF92      		push r12
 1130 000a DF92      		push r13
 1131 000c EF92      		push r14
 1132 000e FF92      		push r15
 1133 0010 0F93      		push r16
 1134 0012 1F93      		push r17
 1135               	/* prologue: function */
 1136               	/* frame size = 0 */
 1137               	.LSM120:
 1138 0014 6091 0000 		lds r22,screen_x
 1139 0018 7091 0000 		lds r23,(screen_x)+1
 1140 001c 82E0      		ldi r24,lo8(2)
 1141 001e 90E0      		ldi r25,hi8(2)
 1142 0020 0E94 0000 		call randInRange
 1143 0024 7C01      		movw r14,r24
 1144               	.LVL74:
 1145               	.LSM121:
 1146 0026 6091 0000 		lds r22,screen_y
 1147 002a 7091 0000 		lds r23,(screen_y)+1
 1148 002e 89E0      		ldi r24,lo8(9)
 1149 0030 90E0      		ldi r25,hi8(9)
 1150 0032 0E94 0000 		call randInRange
 1151 0036 5C01      		movw r10,r24
 1152               	.LVL75:
 1153               	.LSM122:
 1154 0038 8090 0000 		lds r8,sword
 1155 003c 9090 0000 		lds r9,(sword)+1
 1156 0040 0027      		clr r16
 1157 0042 F7FC      		sbrc r15,7
 1158 0044 0095      		com r16
 1159 0046 102F      		mov r17,r16
 1160               	.LVL76:
 1161 0048 C801      		movw r24,r16
 1162 004a B701      		movw r22,r14
 1163 004c 0E94 0000 		call __floatsisf
 1164 0050 F401      		movw r30,r8
 1165 0052 6083      		st Z,r22
 1166 0054 7183      		std Z+1,r23
 1167 0056 8283      		std Z+2,r24
 1168 0058 9383      		std Z+3,r25
 1169               	.LSM123:
 1170 005a CC24      		clr r12
 1171 005c B7FC      		sbrc r11,7
 1172 005e C094      		com r12
 1173 0060 DC2C      		mov r13,r12
 1174               	.LVL77:
 1175 0062 C601      		movw r24,r12
 1176 0064 B501      		movw r22,r10
 1177 0066 0E94 0000 		call __floatsisf
 1178 006a F401      		movw r30,r8
 1179 006c 6483      		std Z+4,r22
 1180 006e 7583      		std Z+5,r23
 1181 0070 8683      		std Z+6,r24
 1182 0072 9783      		std Z+7,r25
 1183               	/* epilogue start */
 1184               	.LSM124:
 1185 0074 1F91      		pop r17
 1186 0076 0F91      		pop r16
 1187 0078 FF90      		pop r15
 1188 007a EF90      		pop r14
 1189               	.LVL78:
 1190 007c DF90      		pop r13
 1191 007e CF90      		pop r12
 1192 0080 BF90      		pop r11
 1193 0082 AF90      		pop r10
 1194               	.LVL79:
 1195 0084 9F90      		pop r9
 1196 0086 8F90      		pop r8
 1197 0088 0895      		ret
 1198               	.LFE26:
 1200               		.section	.text.setupPit,"ax",@progbits
 1201               	.global	setupPit
 1203               	setupPit:
 1204               	.LFB23:
 1205               	.LSM125:
 1206 0000 EF92      		push r14
 1207 0002 FF92      		push r15
 1208 0004 0F93      		push r16
 1209 0006 1F93      		push r17
 1210               	/* prologue: function */
 1211               	/* frame size = 0 */
 1212               	.LSM126:
 1213 0008 86E0      		ldi r24,lo8(6)
 1214 000a 90E0      		ldi r25,hi8(6)
 1215 000c 6CE0      		ldi r22,lo8(12)
 1216 000e 70E0      		ldi r23,hi8(12)
 1217 0010 0E94 0000 		call randInRange
 1218 0014 8C01      		movw r16,r24
 1219               	.LVL80:
 1220               	.LSM127:
 1221 0016 86E0      		ldi r24,lo8(6)
 1222 0018 90E0      		ldi r25,hi8(6)
 1223 001a 6CE0      		ldi r22,lo8(12)
 1224 001c 70E0      		ldi r23,hi8(12)
 1225 001e 0E94 0000 		call randInRange
 1226 0022 7C01      		movw r14,r24
 1227               	.LVL81:
 1228               	.LSM128:
 1229 0024 6091 0000 		lds r22,screen_x_Full
 1230 0028 7091 0000 		lds r23,(screen_x_Full)+1
 1231 002c 6451      		subi r22,lo8(-(-20))
 1232 002e 7040      		sbci r23,hi8(-(-20))
 1233 0030 84E1      		ldi r24,lo8(20)
 1234 0032 90E0      		ldi r25,hi8(20)
 1235 0034 0E94 0000 		call randInRange
 1236 0038 9093 0000 		sts (pitLeft)+1,r25
 1237 003c 8093 0000 		sts pitLeft,r24
 1238               	.LSM129:
 1239 0040 800F      		add r24,r16
 1240 0042 911F      		adc r25,r17
 1241 0044 9093 0000 		sts (pitRight)+1,r25
 1242 0048 8093 0000 		sts pitRight,r24
 1243               	.LSM130:
 1244 004c 6091 0000 		lds r22,screen_y_Full
 1245 0050 7091 0000 		lds r23,(screen_y_Full)+1
 1246 0054 6451      		subi r22,lo8(-(-20))
 1247 0056 7040      		sbci r23,hi8(-(-20))
 1248 0058 8DE1      		ldi r24,lo8(29)
 1249 005a 90E0      		ldi r25,hi8(29)
 1250 005c 0E94 0000 		call randInRange
 1251 0060 9093 0000 		sts (pitTop)+1,r25
 1252 0064 8093 0000 		sts pitTop,r24
 1253               	.LSM131:
 1254 0068 8E0D      		add r24,r14
 1255 006a 9F1D      		adc r25,r15
 1256 006c 9093 0000 		sts (pitBottom)+1,r25
 1257 0070 8093 0000 		sts pitBottom,r24
 1258               	.LSM132:
 1259 0074 0E94 0000 		call drawPit
 1260               	/* epilogue start */
 1261               	.LSM133:
 1262 0078 1F91      		pop r17
 1263 007a 0F91      		pop r16
 1264               	.LVL82:
 1265 007c FF90      		pop r15
 1266 007e EF90      		pop r14
 1267               	.LVL83:
 1268 0080 0895      		ret
 1269               	.LFE23:
 1271               		.section	.text.setupZombies,"ax",@progbits
 1272               	.global	setupZombies
 1274               	setupZombies:
 1275               	.LFB20:
 1276               	.LSM134:
 1277 0000 2F92      		push r2
 1278 0002 3F92      		push r3
 1279 0004 4F92      		push r4
 1280 0006 5F92      		push r5
 1281 0008 6F92      		push r6
 1282 000a 7F92      		push r7
 1283 000c 8F92      		push r8
 1284 000e 9F92      		push r9
 1285 0010 AF92      		push r10
 1286 0012 BF92      		push r11
 1287 0014 CF92      		push r12
 1288 0016 DF92      		push r13
 1289 0018 EF92      		push r14
 1290 001a FF92      		push r15
 1291 001c 0F93      		push r16
 1292 001e 1F93      		push r17
 1293 0020 CF93      		push r28
 1294 0022 DF93      		push r29
 1295               	/* prologue: function */
 1296               	/* frame size = 0 */
 1297               	.LSM135:
 1298 0024 8091 0000 		lds r24,screen_x
 1299 0028 9091 0000 		lds r25,(screen_x)+1
 1300 002c 62E0      		ldi r22,lo8(2)
 1301 002e 70E0      		ldi r23,hi8(2)
 1302 0030 0E94 0000 		call __divmodhi4
 1303 0034 4B01      		movw r8,r22
 1304               	.LSM136:
 1305 0036 8091 0000 		lds r24,screen_y
 1306 003a 9091 0000 		lds r25,(screen_y)+1
 1307 003e 62E0      		ldi r22,lo8(2)
 1308 0040 70E0      		ldi r23,hi8(2)
 1309 0042 0E94 0000 		call __divmodhi4
 1310 0046 1B01      		movw r2,r22
 1311               	.LBB77:
 1312               	.LSM137:
 1313 0048 66EF      		ldi r22,lo8(-10)
 1314 004a 462E      		mov r4,r22
 1315 004c 6FEF      		ldi r22,hi8(-10)
 1316 004e 562E      		mov r5,r22
 1317 0050 480C      		add r4,r8
 1318 0052 591C      		adc r5,r9
 1319               	.LVL84:
 1320 0054 81E0      		ldi r24,lo8(1)
 1321 0056 90E0      		ldi r25,hi8(1)
 1322 0058 B201      		movw r22,r4
 1323 005a 0E94 0000 		call randInRange
 1324 005e A82E      		mov r10,r24
 1325               	.LSM138:
 1326 0060 6091 0000 		lds r22,screen_y
 1327 0064 7091 0000 		lds r23,(screen_y)+1
 1328 0068 6150      		subi r22,lo8(-(-1))
 1329 006a 7040      		sbci r23,hi8(-(-1))
 1330 006c 89E0      		ldi r24,lo8(9)
 1331 006e 90E0      		ldi r25,hi8(9)
 1332 0070 0E94 0000 		call randInRange
 1333 0074 E82E      		mov r14,r24
 1334               	.LSM139:
 1335 0076 6090 0000 		lds r6,zombie
 1336 007a 7090 0000 		lds r7,(zombie)+1
 1337 007e BB24      		clr r11
 1338 0080 CC24      		clr r12
 1339 0082 DD24      		clr r13
 1340 0084 C601      		movw r24,r12
 1341 0086 B501      		movw r22,r10
 1342 0088 0E94 0000 		call __floatunsisf
 1343 008c F301      		movw r30,r6
 1344 008e 6083      		st Z,r22
 1345 0090 7183      		std Z+1,r23
 1346 0092 8283      		std Z+2,r24
 1347 0094 9383      		std Z+3,r25
 1348               	.LSM140:
 1349 0096 FF24      		clr r15
 1350 0098 00E0      		ldi r16,lo8(0)
 1351 009a 10E0      		ldi r17,hi8(0)
 1352 009c C801      		movw r24,r16
 1353 009e B701      		movw r22,r14
 1354 00a0 0E94 0000 		call __floatunsisf
 1355 00a4 F301      		movw r30,r6
 1356 00a6 6483      		std Z+4,r22
 1357 00a8 7583      		std Z+5,r23
 1358 00aa 8683      		std Z+6,r24
 1359 00ac 9783      		std Z+7,r25
 1360               	.LSM141:
 1361 00ae 81E0      		ldi r24,lo8(1)
 1362 00b0 90E0      		ldi r25,hi8(1)
 1363 00b2 B201      		movw r22,r4
 1364 00b4 0E94 0000 		call randInRange
 1365 00b8 A82E      		mov r10,r24
 1366               	.LSM142:
 1367 00ba 6091 0000 		lds r22,screen_y
 1368 00be 7091 0000 		lds r23,(screen_y)+1
 1369 00c2 6150      		subi r22,lo8(-(-1))
 1370 00c4 7040      		sbci r23,hi8(-(-1))
 1371 00c6 89E0      		ldi r24,lo8(9)
 1372 00c8 90E0      		ldi r25,hi8(9)
 1373 00ca 0E94 0000 		call randInRange
 1374 00ce E82E      		mov r14,r24
 1375               	.LSM143:
 1376 00d0 6090 0000 		lds r6,zombie+2
 1377 00d4 7090 0000 		lds r7,(zombie+2)+1
 1378 00d8 BB24      		clr r11
 1379 00da CC24      		clr r12
 1380 00dc DD24      		clr r13
 1381 00de C601      		movw r24,r12
 1382 00e0 B501      		movw r22,r10
 1383 00e2 0E94 0000 		call __floatunsisf
 1384 00e6 F301      		movw r30,r6
 1385 00e8 6083      		st Z,r22
 1386 00ea 7183      		std Z+1,r23
 1387 00ec 8283      		std Z+2,r24
 1388 00ee 9383      		std Z+3,r25
 1389               	.LSM144:
 1390 00f0 FF24      		clr r15
 1391 00f2 00E0      		ldi r16,lo8(0)
 1392 00f4 10E0      		ldi r17,hi8(0)
 1393 00f6 C801      		movw r24,r16
 1394 00f8 B701      		movw r22,r14
 1395 00fa 0E94 0000 		call __floatunsisf
 1396 00fe F301      		movw r30,r6
 1397 0100 6483      		std Z+4,r22
 1398 0102 7583      		std Z+5,r23
 1399 0104 8683      		std Z+6,r24
 1400 0106 9783      		std Z+7,r25
 1401               	.LBE77:
 1402               	.LBB78:
 1403               	.LSM145:
 1404 0108 8AE0      		ldi r24,lo8(10)
 1405 010a 90E0      		ldi r25,hi8(10)
 1406 010c 880E      		add r8,r24
 1407 010e 991E      		adc r9,r25
 1408               	.LVL85:
 1409 0110 6091 0000 		lds r22,screen_x
 1410 0114 7091 0000 		lds r23,(screen_x)+1
 1411 0118 C401      		movw r24,r8
 1412 011a 0E94 0000 		call randInRange
 1413 011e A82E      		mov r10,r24
 1414               	.LSM146:
 1415 0120 6091 0000 		lds r22,screen_y
 1416 0124 7091 0000 		lds r23,(screen_y)+1
 1417 0128 6150      		subi r22,lo8(-(-1))
 1418 012a 7040      		sbci r23,hi8(-(-1))
 1419 012c 89E0      		ldi r24,lo8(9)
 1420 012e 90E0      		ldi r25,hi8(9)
 1421 0130 0E94 0000 		call randInRange
 1422 0134 E82E      		mov r14,r24
 1423               	.LSM147:
 1424 0136 6090 0000 		lds r6,zombie+4
 1425 013a 7090 0000 		lds r7,(zombie+4)+1
 1426 013e BB24      		clr r11
 1427 0140 CC24      		clr r12
 1428 0142 DD24      		clr r13
 1429 0144 C601      		movw r24,r12
 1430 0146 B501      		movw r22,r10
 1431 0148 0E94 0000 		call __floatunsisf
 1432 014c F301      		movw r30,r6
 1433 014e 6083      		st Z,r22
 1434 0150 7183      		std Z+1,r23
 1435 0152 8283      		std Z+2,r24
 1436 0154 9383      		std Z+3,r25
 1437               	.LSM148:
 1438 0156 FF24      		clr r15
 1439 0158 00E0      		ldi r16,lo8(0)
 1440 015a 10E0      		ldi r17,hi8(0)
 1441 015c C801      		movw r24,r16
 1442 015e B701      		movw r22,r14
 1443 0160 0E94 0000 		call __floatunsisf
 1444 0164 F301      		movw r30,r6
 1445 0166 6483      		std Z+4,r22
 1446 0168 7583      		std Z+5,r23
 1447 016a 8683      		std Z+6,r24
 1448 016c 9783      		std Z+7,r25
 1449               	.LSM149:
 1450 016e 6091 0000 		lds r22,screen_x
 1451 0172 7091 0000 		lds r23,(screen_x)+1
 1452 0176 C401      		movw r24,r8
 1453 0178 0E94 0000 		call randInRange
 1454 017c A82E      		mov r10,r24
 1455               	.LSM150:
 1456 017e 6091 0000 		lds r22,screen_y
 1457 0182 7091 0000 		lds r23,(screen_y)+1
 1458 0186 6150      		subi r22,lo8(-(-1))
 1459 0188 7040      		sbci r23,hi8(-(-1))
 1460 018a 89E0      		ldi r24,lo8(9)
 1461 018c 90E0      		ldi r25,hi8(9)
 1462 018e 0E94 0000 		call randInRange
 1463 0192 E82E      		mov r14,r24
 1464               	.LSM151:
 1465 0194 8090 0000 		lds r8,zombie+6
 1466 0198 9090 0000 		lds r9,(zombie+6)+1
 1467 019c BB24      		clr r11
 1468 019e CC24      		clr r12
 1469 01a0 DD24      		clr r13
 1470 01a2 C601      		movw r24,r12
 1471 01a4 B501      		movw r22,r10
 1472 01a6 0E94 0000 		call __floatunsisf
 1473 01aa F401      		movw r30,r8
 1474 01ac 6083      		st Z,r22
 1475 01ae 7183      		std Z+1,r23
 1476 01b0 8283      		std Z+2,r24
 1477 01b2 9383      		std Z+3,r25
 1478               	.LSM152:
 1479 01b4 FF24      		clr r15
 1480 01b6 00E0      		ldi r16,lo8(0)
 1481 01b8 10E0      		ldi r17,hi8(0)
 1482 01ba C801      		movw r24,r16
 1483 01bc B701      		movw r22,r14
 1484 01be 0E94 0000 		call __floatunsisf
 1485 01c2 F401      		movw r30,r8
 1486 01c4 6483      		std Z+4,r22
 1487 01c6 7583      		std Z+5,r23
 1488 01c8 8683      		std Z+6,r24
 1489 01ca 9783      		std Z+7,r25
 1490               	.LBE78:
 1491               	.LBB79:
 1492               	.LSM153:
 1493 01cc 6091 0000 		lds r22,screen_x
 1494 01d0 7091 0000 		lds r23,(screen_x)+1
 1495 01d4 81E0      		ldi r24,lo8(1)
 1496 01d6 90E0      		ldi r25,hi8(1)
 1497 01d8 0E94 0000 		call randInRange
 1498 01dc E82E      		mov r14,r24
 1499               	.LSM154:
 1500 01de 5BEF      		ldi r21,lo8(-5)
 1501 01e0 652E      		mov r6,r21
 1502 01e2 5FEF      		ldi r21,hi8(-5)
 1503 01e4 752E      		mov r7,r21
 1504 01e6 620C      		add r6,r2
 1505 01e8 731C      		adc r7,r3
 1506 01ea 89E0      		ldi r24,lo8(9)
 1507 01ec 90E0      		ldi r25,hi8(9)
 1508 01ee B301      		movw r22,r6
 1509 01f0 0E94 0000 		call randInRange
 1510 01f4 A82E      		mov r10,r24
 1511               	.LSM155:
 1512 01f6 8090 0000 		lds r8,zombie+8
 1513 01fa 9090 0000 		lds r9,(zombie+8)+1
 1514 01fe FF24      		clr r15
 1515 0200 00E0      		ldi r16,lo8(0)
 1516 0202 10E0      		ldi r17,hi8(0)
 1517 0204 C801      		movw r24,r16
 1518 0206 B701      		movw r22,r14
 1519 0208 0E94 0000 		call __floatunsisf
 1520 020c F401      		movw r30,r8
 1521 020e 6083      		st Z,r22
 1522 0210 7183      		std Z+1,r23
 1523 0212 8283      		std Z+2,r24
 1524 0214 9383      		std Z+3,r25
 1525               	.LSM156:
 1526 0216 BB24      		clr r11
 1527 0218 CC24      		clr r12
 1528 021a DD24      		clr r13
 1529 021c C601      		movw r24,r12
 1530 021e B501      		movw r22,r10
 1531 0220 0E94 0000 		call __floatunsisf
 1532 0224 F401      		movw r30,r8
 1533 0226 6483      		std Z+4,r22
 1534 0228 7583      		std Z+5,r23
 1535 022a 8683      		std Z+6,r24
 1536 022c 9783      		std Z+7,r25
 1537               	.LSM157:
 1538 022e 6091 0000 		lds r22,screen_x
 1539 0232 7091 0000 		lds r23,(screen_x)+1
 1540 0236 81E0      		ldi r24,lo8(1)
 1541 0238 90E0      		ldi r25,hi8(1)
 1542 023a 0E94 0000 		call randInRange
 1543 023e E82E      		mov r14,r24
 1544               	.LSM158:
 1545 0240 89E0      		ldi r24,lo8(9)
 1546 0242 90E0      		ldi r25,hi8(9)
 1547 0244 B301      		movw r22,r6
 1548 0246 0E94 0000 		call randInRange
 1549 024a A82E      		mov r10,r24
 1550               	.LSM159:
 1551 024c 8090 0000 		lds r8,zombie+10
 1552 0250 9090 0000 		lds r9,(zombie+10)+1
 1553 0254 FF24      		clr r15
 1554 0256 00E0      		ldi r16,lo8(0)
 1555 0258 10E0      		ldi r17,hi8(0)
 1556 025a C801      		movw r24,r16
 1557 025c B701      		movw r22,r14
 1558 025e 0E94 0000 		call __floatunsisf
 1559 0262 F401      		movw r30,r8
 1560 0264 6083      		st Z,r22
 1561 0266 7183      		std Z+1,r23
 1562 0268 8283      		std Z+2,r24
 1563 026a 9383      		std Z+3,r25
 1564               	.LSM160:
 1565 026c BB24      		clr r11
 1566 026e CC24      		clr r12
 1567 0270 DD24      		clr r13
 1568 0272 C601      		movw r24,r12
 1569 0274 B501      		movw r22,r10
 1570 0276 0E94 0000 		call __floatunsisf
 1571 027a F401      		movw r30,r8
 1572 027c 6483      		std Z+4,r22
 1573 027e 7583      		std Z+5,r23
 1574 0280 8683      		std Z+6,r24
 1575 0282 9783      		std Z+7,r25
 1576               	.LBE79:
 1577               	.LBB80:
 1578               	.LSM161:
 1579 0284 6091 0000 		lds r22,screen_x
 1580 0288 7091 0000 		lds r23,(screen_x)+1
 1581 028c 81E0      		ldi r24,lo8(1)
 1582 028e 90E0      		ldi r25,hi8(1)
 1583 0290 0E94 0000 		call randInRange
 1584 0294 A82E      		mov r10,r24
 1585               	.LSM162:
 1586 0296 8FE0      		ldi r24,lo8(15)
 1587 0298 90E0      		ldi r25,hi8(15)
 1588 029a 280E      		add r2,r24
 1589 029c 391E      		adc r3,r25
 1590 029e 6091 0000 		lds r22,screen_y
 1591 02a2 7091 0000 		lds r23,(screen_y)+1
 1592 02a6 C101      		movw r24,r2
 1593 02a8 0E94 0000 		call randInRange
 1594 02ac E82E      		mov r14,r24
 1595               	.LSM163:
 1596 02ae 8090 0000 		lds r8,zombie+12
 1597 02b2 9090 0000 		lds r9,(zombie+12)+1
 1598 02b6 BB24      		clr r11
 1599 02b8 CC24      		clr r12
 1600 02ba DD24      		clr r13
 1601 02bc C601      		movw r24,r12
 1602 02be B501      		movw r22,r10
 1603 02c0 0E94 0000 		call __floatunsisf
 1604 02c4 F401      		movw r30,r8
 1605 02c6 6083      		st Z,r22
 1606 02c8 7183      		std Z+1,r23
 1607 02ca 8283      		std Z+2,r24
 1608 02cc 9383      		std Z+3,r25
 1609               	.LSM164:
 1610 02ce FF24      		clr r15
 1611 02d0 00E0      		ldi r16,lo8(0)
 1612 02d2 10E0      		ldi r17,hi8(0)
 1613 02d4 C801      		movw r24,r16
 1614 02d6 B701      		movw r22,r14
 1615 02d8 0E94 0000 		call __floatunsisf
 1616 02dc F401      		movw r30,r8
 1617 02de 6483      		std Z+4,r22
 1618 02e0 7583      		std Z+5,r23
 1619 02e2 8683      		std Z+6,r24
 1620 02e4 9783      		std Z+7,r25
 1621               	.LSM165:
 1622 02e6 6091 0000 		lds r22,screen_x
 1623 02ea 7091 0000 		lds r23,(screen_x)+1
 1624 02ee 81E0      		ldi r24,lo8(1)
 1625 02f0 90E0      		ldi r25,hi8(1)
 1626 02f2 0E94 0000 		call randInRange
 1627 02f6 E82E      		mov r14,r24
 1628               	.LSM166:
 1629 02f8 6091 0000 		lds r22,screen_y
 1630 02fc 7091 0000 		lds r23,(screen_y)+1
 1631 0300 C101      		movw r24,r2
 1632 0302 0E94 0000 		call randInRange
 1633 0306 A82E      		mov r10,r24
 1634               	.LSM167:
 1635 0308 8090 0000 		lds r8,zombie+14
 1636 030c 9090 0000 		lds r9,(zombie+14)+1
 1637 0310 FF24      		clr r15
 1638 0312 00E0      		ldi r16,lo8(0)
 1639 0314 10E0      		ldi r17,hi8(0)
 1640 0316 C801      		movw r24,r16
 1641 0318 B701      		movw r22,r14
 1642 031a 0E94 0000 		call __floatunsisf
 1643 031e F401      		movw r30,r8
 1644 0320 6083      		st Z,r22
 1645 0322 7183      		std Z+1,r23
 1646 0324 8283      		std Z+2,r24
 1647 0326 9383      		std Z+3,r25
 1648               	.LSM168:
 1649 0328 BB24      		clr r11
 1650 032a CC24      		clr r12
 1651 032c DD24      		clr r13
 1652 032e C601      		movw r24,r12
 1653 0330 B501      		movw r22,r10
 1654 0332 0E94 0000 		call __floatunsisf
 1655 0336 F401      		movw r30,r8
 1656 0338 6483      		std Z+4,r22
 1657 033a 7583      		std Z+5,r23
 1658 033c 8683      		std Z+6,r24
 1659 033e 9783      		std Z+7,r25
 1660 0340 C0E0      		ldi r28,lo8(zDirection)
 1661 0342 D0E0      		ldi r29,hi8(zDirection)
 1662               	.L80:
 1663               	.LBE80:
 1664               	.LBB81:
 1665               	.LSM169:
 1666 0344 80E0      		ldi r24,lo8(0)
 1667 0346 90E0      		ldi r25,hi8(0)
 1668 0348 63E0      		ldi r22,lo8(3)
 1669 034a 70E0      		ldi r23,hi8(3)
 1670 034c 0E94 0000 		call randInRange
 1671 0350 8993      		st Y+,r24
 1672 0352 9993      		st Y+,r25
 1673               	.LSM170:
 1674 0354 F0E0      		ldi r31,hi8(zDirection+16)
 1675 0356 C030      		cpi r28,lo8(zDirection+16)
 1676 0358 DF07      		cpc r29,r31
 1677 035a 01F4      		brne .L80
 1678               	/* epilogue start */
 1679               	.LBE81:
 1680               	.LSM171:
 1681 035c DF91      		pop r29
 1682 035e CF91      		pop r28
 1683 0360 1F91      		pop r17
 1684 0362 0F91      		pop r16
 1685 0364 FF90      		pop r15
 1686 0366 EF90      		pop r14
 1687 0368 DF90      		pop r13
 1688 036a CF90      		pop r12
 1689 036c BF90      		pop r11
 1690 036e AF90      		pop r10
 1691 0370 9F90      		pop r9
 1692 0372 8F90      		pop r8
 1693 0374 7F90      		pop r7
 1694 0376 6F90      		pop r6
 1695 0378 5F90      		pop r5
 1696 037a 4F90      		pop r4
 1697 037c 3F90      		pop r3
 1698 037e 2F90      		pop r2
 1699 0380 0895      		ret
 1700               	.LFE20:
 1702               		.section	.text.zombiesForward,"ax",@progbits
 1703               	.global	zombiesForward
 1705               	zombiesForward:
 1706               	.LFB18:
 1707               	.LSM172:
 1708 0000 2F92      		push r2
 1709 0002 3F92      		push r3
 1710 0004 4F92      		push r4
 1711 0006 5F92      		push r5
 1712 0008 6F92      		push r6
 1713 000a 7F92      		push r7
 1714 000c 8F92      		push r8
 1715 000e 9F92      		push r9
 1716 0010 AF92      		push r10
 1717 0012 BF92      		push r11
 1718 0014 CF92      		push r12
 1719 0016 DF92      		push r13
 1720 0018 EF92      		push r14
 1721 001a FF92      		push r15
 1722 001c 0F93      		push r16
 1723 001e 1F93      		push r17
 1724 0020 CF93      		push r28
 1725 0022 DF93      		push r29
 1726               	/* prologue: function */
 1727               	/* frame size = 0 */
 1728               	.LSM173:
 1729 0024 10E0      		ldi r17,lo8(zombie)
 1730 0026 212E      		mov r2,r17
 1731 0028 10E0      		ldi r17,hi8(zombie)
 1732 002a 312E      		mov r3,r17
 1733 002c B0E0      		ldi r27,lo8(zDirection)
 1734 002e 6B2E      		mov r6,r27
 1735 0030 B0E0      		ldi r27,hi8(zDirection)
 1736 0032 7B2E      		mov r7,r27
 1737 0034 CC24      		clr r12
 1738 0036 DD24      		clr r13
 1739               	.LVL86:
 1740 0038 4424      		clr r4
 1741 003a 5524      		clr r5
 1742               	.LVL87:
 1743               	.LVL88:
 1744               	.L96:
 1745               	.LBB82:
 1746               	.LSM174:
 1747 003c 81E0      		ldi r24,lo8(1)
 1748 003e 90E0      		ldi r25,hi8(1)
 1749 0040 64E6      		ldi r22,lo8(100)
 1750 0042 70E0      		ldi r23,hi8(100)
 1751 0044 0E94 0000 		call randInRange
 1752               	.LSM175:
 1753 0048 8630      		cpi r24,6
 1754 004a 9105      		cpc r25,__zero_reg__
 1755               	.LVL89:
 1756 004c 04F4      		brge .L84
 1757               	.LSM176:
 1758 004e F301      		movw r30,r6
 1759 0050 8081      		ld r24,Z
 1760 0052 9181      		ldd r25,Z+1
 1761               	.LVL90:
 1762 0054 0197      		sbiw r24,1
 1763 0056 9183      		std Z+1,r25
 1764 0058 8083      		st Z,r24
 1765               	.LSM177:
 1766 005a 97FF      		sbrs r25,7
 1767 005c 00C0      		rjmp .L85
 1768               	.LSM178:
 1769 005e 83E0      		ldi r24,lo8(3)
 1770 0060 90E0      		ldi r25,hi8(3)
 1771 0062 00C0      		rjmp .L101
 1772               	.LVL91:
 1773               	.L84:
 1774               	.LSM179:
 1775 0064 8036      		cpi r24,96
 1776 0066 9105      		cpc r25,__zero_reg__
 1777 0068 04F0      		brlt .L85
 1778               	.LSM180:
 1779 006a F301      		movw r30,r6
 1780 006c 8081      		ld r24,Z
 1781 006e 9181      		ldd r25,Z+1
 1782               	.LVL92:
 1783 0070 0196      		adiw r24,1
 1784 0072 64E0      		ldi r22,lo8(4)
 1785 0074 70E0      		ldi r23,hi8(4)
 1786 0076 0E94 0000 		call __divmodhi4
 1787               	.L101:
 1788 007a 9183      		std Z+1,r25
 1789 007c 8083      		st Z,r24
 1790               	.LVL93:
 1791               	.L85:
 1792               	.LSM181:
 1793 007e F101      		movw r30,r2
 1794 0080 A080      		ld r10,Z
 1795 0082 B180      		ldd r11,Z+1
 1796 0084 C501      		movw r24,r10
 1797               	.LVL94:
 1798 0086 0E94 0000 		call isInPit
 1799 008a 892B      		or r24,r25
 1800 008c 01F0      		breq .L86
 1801               	.LSM182:
 1802 008e E090 0000 		lds r14,pitTop
 1803 0092 F090 0000 		lds r15,(pitTop)+1
 1804 0096 82E0      		ldi r24,lo8(2)
 1805 0098 90E0      		ldi r25,hi8(2)
 1806 009a E80E      		add r14,r24
 1807 009c F91E      		adc r15,r25
 1808               	.LSM183:
 1809 009e 2091 0000 		lds r18,pitBottom
 1810 00a2 3091 0000 		lds r19,(pitBottom)+1
 1811               	.LVL95:
 1812 00a6 2450      		subi r18,lo8(-(-4))
 1813 00a8 3040      		sbci r19,hi8(-(-4))
 1814               	.LSM184:
 1815 00aa 8090 0000 		lds r8,pitLeft
 1816 00ae 9090 0000 		lds r9,(pitLeft)+1
 1817 00b2 880E      		add r8,r24
 1818 00b4 991E      		adc r9,r25
 1819               	.LSM185:
 1820 00b6 C091 0000 		lds r28,pitRight
 1821 00ba D091 0000 		lds r29,(pitRight)+1
 1822 00be 2497      		sbiw r28,4
 1823 00c0 00C0      		rjmp .L87
 1824               	.LVL96:
 1825               	.L86:
 1826               	.LSM186:
 1827 00c2 2091 0000 		lds r18,screen_y
 1828 00c6 3091 0000 		lds r19,(screen_y)+1
 1829               	.LVL97:
 1830 00ca 2150      		subi r18,lo8(-(-1))
 1831 00cc 3040      		sbci r19,hi8(-(-1))
 1832               	.LSM187:
 1833 00ce C091 0000 		lds r28,screen_x
 1834 00d2 D091 0000 		lds r29,(screen_x)+1
 1835 00d6 2197      		sbiw r28,1
 1836 00d8 AAE0      		ldi r26,lo8(10)
 1837 00da EA2E      		mov r14,r26
 1838 00dc F12C      		mov r15,__zero_reg__
 1839 00de F2E0      		ldi r31,lo8(2)
 1840 00e0 8F2E      		mov r8,r31
 1841 00e2 912C      		mov r9,__zero_reg__
 1842               	.L87:
 1843               	.LSM188:
 1844 00e4 F301      		movw r30,r6
 1845 00e6 0081      		ld r16,Z
 1846 00e8 1181      		ldd r17,Z+1
 1847 00ea 0115      		cp r16,__zero_reg__
 1848 00ec 1105      		cpc r17,__zero_reg__
 1849 00ee 01F4      		brne .L88
 1850               	.LSM189:
 1851 00f0 B901      		movw r22,r18
 1852 00f2 8827      		clr r24
 1853 00f4 77FD      		sbrc r23,7
 1854 00f6 8095      		com r24
 1855 00f8 982F      		mov r25,r24
 1856               	.LVL98:
 1857 00fa 0E94 0000 		call __floatsisf
 1858               	.LVL99:
 1859 00fe 9B01      		movw r18,r22
 1860 0100 AC01      		movw r20,r24
 1861 0102 F501      		movw r30,r10
 1862 0104 6481      		ldd r22,Z+4
 1863 0106 7581      		ldd r23,Z+5
 1864 0108 8681      		ldd r24,Z+6
 1865 010a 9781      		ldd r25,Z+7
 1866 010c 0E94 0000 		call __gtsf2
 1867 0110 1816      		cp __zero_reg__,r24
 1868 0112 04F4      		brge .+2
 1869 0114 00C0      		rjmp .L89
 1870 0116 E1E0      		ldi r30,lo8(1)
 1871 0118 CE2E      		mov r12,r30
 1872 011a D12C      		mov r13,__zero_reg__
 1873 011c 4424      		clr r4
 1874 011e 5524      		clr r5
 1875               	.LVL100:
 1876               	.L88:
 1877               	.LSM190:
 1878 0120 0130      		cpi r16,1
 1879 0122 1105      		cpc r17,__zero_reg__
 1880 0124 01F4      		brne .L90
 1881               	.LSM191:
 1882 0126 BE01      		movw r22,r28
 1883 0128 8827      		clr r24
 1884 012a 77FD      		sbrc r23,7
 1885 012c 8095      		com r24
 1886 012e 982F      		mov r25,r24
 1887               	.LVL101:
 1888 0130 0E94 0000 		call __floatsisf
 1889               	.LVL102:
 1890 0134 9B01      		movw r18,r22
 1891 0136 AC01      		movw r20,r24
 1892 0138 F501      		movw r30,r10
 1893 013a 6081      		ld r22,Z
 1894 013c 7181      		ldd r23,Z+1
 1895 013e 8281      		ldd r24,Z+2
 1896 0140 9381      		ldd r25,Z+3
 1897 0142 0E94 0000 		call __gtsf2
 1898 0146 1816      		cp __zero_reg__,r24
 1899 0148 04F0      		brlt .L89
 1900 014a 00C0      		rjmp .L103
 1901               	.LVL103:
 1902               	.L90:
 1903               	.LSM192:
 1904 014c 0230      		cpi r16,2
 1905 014e 1105      		cpc r17,__zero_reg__
 1906 0150 01F4      		brne .L93
 1907               	.LSM193:
 1908 0152 B701      		movw r22,r14
 1909 0154 8827      		clr r24
 1910 0156 77FD      		sbrc r23,7
 1911 0158 8095      		com r24
 1912 015a 982F      		mov r25,r24
 1913               	.LVL104:
 1914 015c 0E94 0000 		call __floatsisf
 1915               	.LVL105:
 1916 0160 9B01      		movw r18,r22
 1917 0162 AC01      		movw r20,r24
 1918 0164 F501      		movw r30,r10
 1919 0166 6481      		ldd r22,Z+4
 1920 0168 7581      		ldd r23,Z+5
 1921 016a 8681      		ldd r24,Z+6
 1922 016c 9781      		ldd r25,Z+7
 1923 016e 0E94 0000 		call __ltsf2
 1924 0172 87FD      		sbrc r24,7
 1925 0174 00C0      		rjmp .L89
 1926 0176 CC24      		clr r12
 1927 0178 CA94      		dec r12
 1928 017a DC2C      		mov r13,r12
 1929 017c 00C0      		rjmp .L102
 1930               	.LVL106:
 1931               	.L103:
 1932 017e CC24      		clr r12
 1933 0180 DD24      		clr r13
 1934 0182 71E0      		ldi r23,lo8(1)
 1935 0184 472E      		mov r4,r23
 1936 0186 512C      		mov r5,__zero_reg__
 1937               	.LVL107:
 1938               	.L93:
 1939               	.LSM194:
 1940 0188 0330      		cpi r16,3
 1941 018a 1105      		cpc r17,__zero_reg__
 1942 018c 01F4      		brne .L95
 1943               	.LSM195:
 1944 018e B401      		movw r22,r8
 1945 0190 8827      		clr r24
 1946 0192 77FD      		sbrc r23,7
 1947 0194 8095      		com r24
 1948 0196 982F      		mov r25,r24
 1949               	.LVL108:
 1950 0198 0E94 0000 		call __floatsisf
 1951               	.LVL109:
 1952 019c 9B01      		movw r18,r22
 1953 019e AC01      		movw r20,r24
 1954 01a0 F501      		movw r30,r10
 1955 01a2 6081      		ld r22,Z
 1956 01a4 7181      		ldd r23,Z+1
 1957 01a6 8281      		ldd r24,Z+2
 1958 01a8 9381      		ldd r25,Z+3
 1959 01aa 0E94 0000 		call __ltsf2
 1960 01ae 87FD      		sbrc r24,7
 1961 01b0 00C0      		rjmp .L89
 1962 01b2 CC24      		clr r12
 1963 01b4 DD24      		clr r13
 1964 01b6 4424      		clr r4
 1965 01b8 4A94      		dec r4
 1966 01ba 542C      		mov r5,r4
 1967 01bc 00C0      		rjmp .L95
 1968               	.LVL110:
 1969               	.L89:
 1970 01be CC24      		clr r12
 1971 01c0 DD24      		clr r13
 1972               	.L102:
 1973 01c2 4424      		clr r4
 1974 01c4 5524      		clr r5
 1975               	.LVL111:
 1976               	.L95:
 1977               	.LSM196:
 1978 01c6 B201      		movw r22,r4
 1979 01c8 8827      		clr r24
 1980 01ca 77FD      		sbrc r23,7
 1981 01cc 8095      		com r24
 1982 01ce 982F      		mov r25,r24
 1983               	.LVL112:
 1984 01d0 0E94 0000 		call __floatsisf
 1985               	.LVL113:
 1986 01d4 9B01      		movw r18,r22
 1987 01d6 AC01      		movw r20,r24
 1988 01d8 F501      		movw r30,r10
 1989 01da 6081      		ld r22,Z
 1990 01dc 7181      		ldd r23,Z+1
 1991 01de 8281      		ldd r24,Z+2
 1992 01e0 9381      		ldd r25,Z+3
 1993 01e2 0E94 0000 		call __addsf3
 1994 01e6 F501      		movw r30,r10
 1995 01e8 6083      		st Z,r22
 1996 01ea 7183      		std Z+1,r23
 1997 01ec 8283      		std Z+2,r24
 1998 01ee 9383      		std Z+3,r25
 1999               	.LSM197:
 2000 01f0 F101      		movw r30,r2
 2001 01f2 0191      		ld r16,Z+
 2002 01f4 1191      		ld r17,Z+
 2003 01f6 1F01      		movw r2,r30
 2004 01f8 B601      		movw r22,r12
 2005 01fa 8827      		clr r24
 2006 01fc 77FD      		sbrc r23,7
 2007 01fe 8095      		com r24
 2008 0200 982F      		mov r25,r24
 2009               	.LVL114:
 2010 0202 0E94 0000 		call __floatsisf
 2011               	.LVL115:
 2012 0206 9B01      		movw r18,r22
 2013 0208 AC01      		movw r20,r24
 2014 020a F801      		movw r30,r16
 2015 020c 6481      		ldd r22,Z+4
 2016 020e 7581      		ldd r23,Z+5
 2017 0210 8681      		ldd r24,Z+6
 2018 0212 9781      		ldd r25,Z+7
 2019 0214 0E94 0000 		call __addsf3
 2020 0218 F801      		movw r30,r16
 2021 021a 6483      		std Z+4,r22
 2022 021c 7583      		std Z+5,r23
 2023 021e 8683      		std Z+6,r24
 2024 0220 9783      		std Z+7,r25
 2025 0222 82E0      		ldi r24,lo8(2)
 2026 0224 90E0      		ldi r25,hi8(2)
 2027 0226 680E      		add r6,r24
 2028 0228 791E      		adc r7,r25
 2029               	.LSM198:
 2030 022a 90E0      		ldi r25,lo8(zombie+16)
 2031 022c 2916      		cp r2,r25
 2032 022e 90E0      		ldi r25,hi8(zombie+16)
 2033 0230 3906      		cpc r3,r25
 2034 0232 01F0      		breq .+2
 2035 0234 00C0      		rjmp .L96
 2036               	/* epilogue start */
 2037               	.LBE82:
 2038               	.LSM199:
 2039 0236 DF91      		pop r29
 2040 0238 CF91      		pop r28
 2041               	.LVL116:
 2042 023a 1F91      		pop r17
 2043 023c 0F91      		pop r16
 2044 023e FF90      		pop r15
 2045 0240 EF90      		pop r14
 2046               	.LVL117:
 2047 0242 DF90      		pop r13
 2048 0244 CF90      		pop r12
 2049 0246 BF90      		pop r11
 2050 0248 AF90      		pop r10
 2051 024a 9F90      		pop r9
 2052 024c 8F90      		pop r8
 2053               	.LVL118:
 2054 024e 7F90      		pop r7
 2055 0250 6F90      		pop r6
 2056 0252 5F90      		pop r5
 2057 0254 4F90      		pop r4
 2058 0256 3F90      		pop r3
 2059 0258 2F90      		pop r2
 2060 025a 0895      		ret
 2061               	.LFE18:
 2063               		.section	.text.__vector_23,"ax",@progbits
 2064               	.global	__vector_23
 2066               	__vector_23:
 2067               	.LFB16:
 2068               	.LSM200:
 2069 0000 1F92      		push __zero_reg__
 2070 0002 0F92      		push r0
 2071 0004 0FB6      		in r0,__SREG__
 2072 0006 0F92      		push r0
 2073 0008 1124      		clr __zero_reg__
 2074 000a 2F93      		push r18
 2075 000c 3F93      		push r19
 2076 000e 4F93      		push r20
 2077 0010 5F93      		push r21
 2078 0012 6F93      		push r22
 2079 0014 7F93      		push r23
 2080 0016 8F93      		push r24
 2081 0018 9F93      		push r25
 2082 001a AF93      		push r26
 2083 001c BF93      		push r27
 2084 001e EF93      		push r30
 2085 0020 FF93      		push r31
 2086               	/* prologue: Signal */
 2087               	/* frame size = 0 */
 2088               	.LSM201:
 2089 0022 A89A      		sbi 53-32,0
 2090               	.LSM202:
 2091 0024 8091 0000 		lds r24,clockCounter
 2092 0028 9091 0000 		lds r25,(clockCounter)+1
 2093 002c 0196      		adiw r24,1
 2094 002e 9093 0000 		sts (clockCounter)+1,r25
 2095 0032 8093 0000 		sts clockCounter,r24
 2096               	.LSM203:
 2097 0036 8091 0000 		lds r24,clockCounter
 2098 003a 9091 0000 		lds r25,(clockCounter)+1
 2099 003e 0597      		sbiw r24,5
 2100 0040 04F0      		brlt .L107
 2101 0042 8091 0000 		lds r24,GAMEON
 2102 0046 9091 0000 		lds r25,(GAMEON)+1
 2103 004a 892B      		or r24,r25
 2104 004c 01F0      		breq .L107
 2105               	.LSM204:
 2106 004e 1092 0000 		sts (clockCounter)+1,__zero_reg__
 2107 0052 1092 0000 		sts clockCounter,__zero_reg__
 2108               	.LSM205:
 2109 0056 8091 0000 		lds r24,stepsCounter
 2110 005a 9091 0000 		lds r25,(stepsCounter)+1
 2111 005e 0196      		adiw r24,1
 2112 0060 9093 0000 		sts (stepsCounter)+1,r25
 2113 0064 8093 0000 		sts stepsCounter,r24
 2114               	.LSM206:
 2115 0068 8091 0000 		lds r24,stepsCounter
 2116 006c 9091 0000 		lds r25,(stepsCounter)+1
 2117 0070 0A97      		sbiw r24,10
 2118 0072 04F0      		brlt .L106
 2119               	.LSM207:
 2120 0074 1092 0000 		sts (stepsCounter)+1,__zero_reg__
 2121 0078 1092 0000 		sts stepsCounter,__zero_reg__
 2122               	.LSM208:
 2123 007c 0E94 0000 		call zombiesForward
 2124               	.L106:
 2125               	.LSM209:
 2126 0080 0E94 0000 		call heroForward
 2127               	.L107:
 2128               	/* epilogue start */
 2129               	.LSM210:
 2130 0084 FF91      		pop r31
 2131 0086 EF91      		pop r30
 2132 0088 BF91      		pop r27
 2133 008a AF91      		pop r26
 2134 008c 9F91      		pop r25
 2135 008e 8F91      		pop r24
 2136 0090 7F91      		pop r23
 2137 0092 6F91      		pop r22
 2138 0094 5F91      		pop r21
 2139 0096 4F91      		pop r20
 2140 0098 3F91      		pop r19
 2141 009a 2F91      		pop r18
 2142 009c 0F90      		pop r0
 2143 009e 0FBE      		out __SREG__,r0
 2144 00a0 0F90      		pop r0
 2145 00a2 1F90      		pop __zero_reg__
 2146 00a4 1895      		reti
 2147               	.LFE16:
 2149               		.data
 2150               	.LC3:
 2151 0018 5A6F 6D62 		.string	"ZombieDash v1.0"
 2151      6965 4461 
 2151      7368 2076 
 2151      312E 3000 
 2152               	.LC4:
 2153 0028 4C61 6368 		.string	"Lachlan Robinson"
 2153      6C61 6E20 
 2153      526F 6269 
 2153      6E73 6F6E 
 2153      00
 2154               	.LC5:
 2155 0039 6E38 3834 		.string	"n8845409"
 2155      3534 3039 
 2155      00
 2156               		.section	.text.setupGame,"ax",@progbits
 2157               	.global	setupGame
 2159               	setupGame:
 2160               	.LFB8:
 2161               	.LSM211:
 2162               	/* prologue: function */
 2163               	/* frame size = 0 */
 2164               	.LSM212:
 2165 0000 84B1      		in r24,36-32
 2166 0002 8C60      		ori r24,lo8(12)
 2167 0004 84B9      		out 36-32,r24
 2168               	.LSM213:
 2169 0006 569A      		sbi 42-32,6
 2170               	.LSM214:
 2171 0008 8BB1      		in r24,43-32
 2172 000a 8BB9      		out 43-32,r24
 2173               	.LSM215:
 2174 000c 289A      		sbi 37-32,0
 2175               	.LSM216:
 2176 000e E1E6      		ldi r30,lo8(97)
 2177 0010 F0E0      		ldi r31,hi8(97)
 2178 0012 80E8      		ldi r24,lo8(-128)
 2179 0014 8083      		st Z,r24
 2180 0016 1082      		st Z,__zero_reg__
 2181               	.LSM217:
 2182 0018 8FE3      		ldi r24,lo8(63)
 2183 001a 0E94 0000 		call LCDInitialise
 2184               	.LSM218:
 2185 001e 0E94 0000 		call clear
 2186               	.LSM219:
 2187 0022 0E94 0000 		call PinChangeInit
 2188               	.LSM220:
 2189 0026 0E94 0000 		call TimerInit
 2190               	.LSM221:
 2191 002a 0E94 0000 		call clear
 2192               	.LSM222:
 2193 002e 80E0      		ldi r24,lo8(.LC3)
 2194 0030 90E0      		ldi r25,hi8(.LC3)
 2195 0032 64E0      		ldi r22,lo8(4)
 2196 0034 40E0      		ldi r20,lo8(0)
 2197 0036 0E94 0000 		call draw_string
 2198               	.LSM223:
 2199 003a 80E0      		ldi r24,lo8(.LC4)
 2200 003c 90E0      		ldi r25,hi8(.LC4)
 2201 003e 62E0      		ldi r22,lo8(2)
 2202 0040 49E0      		ldi r20,lo8(9)
 2203 0042 0E94 0000 		call draw_string
 2204               	.LSM224:
 2205 0046 80E0      		ldi r24,lo8(.LC5)
 2206 0048 90E0      		ldi r25,hi8(.LC5)
 2207 004a 66E1      		ldi r22,lo8(22)
 2208 004c 4CE1      		ldi r20,lo8(28)
 2209 004e 0E94 0000 		call draw_string
 2210               	.LSM225:
 2211 0052 0E94 0000 		call refresh
 2212               	.LSM226:
 2213 0056 0E94 0000 		call seedWithButtonPress
 2214               	.LSM227:
 2215 005a 0E94 0000 		call buttonCheck
 2216               	.LSM228:
 2217 005e 0E94 0000 		call CountDown
 2218               	.LSM229:
 2219 0062 83E0      		ldi r24,lo8(3)
 2220 0064 90E0      		ldi r25,hi8(3)
 2221 0066 9093 0000 		sts (Lives)+1,r25
 2222 006a 8093 0000 		sts Lives,r24
 2223               	/* epilogue start */
 2224               	.LSM230:
 2225 006e 0895      		ret
 2226               	.LFE8:
 2228               		.data
 2229               	.LC6:
 2230 0042 546F 7563 		.string	"Touched A Zombie!"
 2230      6865 6420 
 2230      4120 5A6F 
 2230      6D62 6965 
 2230      2100 
 2231               	.LC7:
 2232 0054 4761 6D65 		.string	"Game OVER!"
 2232      204F 5645 
 2232      5221 00
 2233               		.section	.text.collision,"ax",@progbits
 2234               	.global	collision
 2236               	collision:
 2237               	.LFB22:
 2238               	.LSM231:
 2239 0000 4F92      		push r4
 2240 0002 5F92      		push r5
 2241 0004 6F92      		push r6
 2242 0006 7F92      		push r7
 2243 0008 8F92      		push r8
 2244 000a 9F92      		push r9
 2245 000c AF92      		push r10
 2246 000e BF92      		push r11
 2247 0010 CF92      		push r12
 2248 0012 DF92      		push r13
 2249 0014 EF92      		push r14
 2250 0016 FF92      		push r15
 2251 0018 0F93      		push r16
 2252 001a 1F93      		push r17
 2253 001c CF93      		push r28
 2254 001e DF93      		push r29
 2255               	/* prologue: function */
 2256               	/* frame size = 0 */
 2257               	.LSM232:
 2258 0020 8091 0000 		lds r24,screen_x
 2259 0024 9091 0000 		lds r25,(screen_x)+1
 2260 0028 62E0      		ldi r22,lo8(2)
 2261 002a 70E0      		ldi r23,hi8(2)
 2262 002c 0E94 0000 		call __divmodhi4
 2263 0030 B62E      		mov r11,r22
 2264               	.LSM233:
 2265 0032 8091 0000 		lds r24,screen_y
 2266 0036 9091 0000 		lds r25,(screen_y)+1
 2267 003a 62E0      		ldi r22,lo8(2)
 2268 003c 70E0      		ldi r23,hi8(2)
 2269 003e 0E94 0000 		call __divmodhi4
 2270 0042 A62E      		mov r10,r22
 2271               	.LVL119:
 2272               	.LSM234:
 2273 0044 0091 0000 		lds r16,my_pointer
 2274 0048 1091 0000 		lds r17,(my_pointer)+1
 2275 004c F801      		movw r30,r16
 2276 004e 6081      		ld r22,Z
 2277 0050 7181      		ldd r23,Z+1
 2278 0052 8281      		ldd r24,Z+2
 2279 0054 9381      		ldd r25,Z+3
 2280 0056 0E94 0000 		call __fixunssfsi
 2281 005a 6B01      		movw r12,r22
 2282 005c 7C01      		movw r14,r24
 2283               	.LSM235:
 2284 005e F801      		movw r30,r16
 2285 0060 6481      		ldd r22,Z+4
 2286 0062 7581      		ldd r23,Z+5
 2287 0064 8681      		ldd r24,Z+6
 2288 0066 9781      		ldd r25,Z+7
 2289 0068 0E94 0000 		call __fixunssfsi
 2290 006c C0E0      		ldi r28,lo8(zombie)
 2291 006e D0E0      		ldi r29,hi8(zombie)
 2292               	.LBB83:
 2293               	.LBB84:
 2294               	.LSM236:
 2295 0070 6C2C      		mov r6,r12
 2296               	.LVL120:
 2297 0072 7724      		clr r7
 2298 0074 862E      		mov r8,r22
 2299 0076 9924      		clr r9
 2300               	.LSM237:
 2301 0078 81E0      		ldi r24,lo8(1)
 2302 007a 482E      		mov r4,r24
 2303 007c 512C      		mov r5,__zero_reg__
 2304               	.LBB85:
 2305               	.LBB86:
 2306               	.LBB87:
 2307               	.LBB88:
 2308               	.LSM238:
 2309 007e 00E9      		ldi r16,lo8(400)
 2310 0080 C02E      		mov r12,r16
 2311 0082 01E0      		ldi r16,hi8(400)
 2312 0084 D02E      		mov r13,r16
 2313               	.LVL121:
 2314               	.LBE88:
 2315               	.LBE87:
 2316               	.LBE86:
 2317               	.LBE85:
 2318               	.LSM239:
 2319 0086 F7EE      		ldi r31,lo8(-25)
 2320 0088 BF0E      		add r11,r31
 2321               	.L118:
 2322               	.LSM240:
 2323 008a E881      		ld r30,Y
 2324 008c F981      		ldd r31,Y+1
 2325               	.LSM241:
 2326 008e E480      		ldd r14,Z+4
 2327 0090 F580      		ldd r15,Z+5
 2328 0092 0681      		ldd r16,Z+6
 2329 0094 1781      		ldd r17,Z+7
 2330               	.LSM242:
 2331 0096 6081      		ld r22,Z
 2332 0098 7181      		ldd r23,Z+1
 2333 009a 8281      		ldd r24,Z+2
 2334 009c 9381      		ldd r25,Z+3
 2335 009e 0E94 0000 		call __fixunssfsi
 2336 00a2 70E0      		ldi r23,lo8(0)
 2337 00a4 8091 0000 		lds r24,width
 2338 00a8 282F      		mov r18,r24
 2339 00aa 30E0      		ldi r19,lo8(0)
 2340 00ac CB01      		movw r24,r22
 2341 00ae 821B      		sub r24,r18
 2342 00b0 930B      		sbc r25,r19
 2343 00b2 8615      		cp r24,r6
 2344 00b4 9705      		cpc r25,r7
 2345 00b6 04F0      		brlt .+2
 2346 00b8 00C0      		rjmp .L111
 2347 00ba 620F      		add r22,r18
 2348 00bc 731F      		adc r23,r19
 2349 00be 6616      		cp r6,r22
 2350 00c0 7706      		cpc r7,r23
 2351 00c2 04F0      		brlt .+2
 2352 00c4 00C0      		rjmp .L111
 2353 00c6 C801      		movw r24,r16
 2354 00c8 B701      		movw r22,r14
 2355 00ca 0E94 0000 		call __fixunssfsi
 2356 00ce 70E0      		ldi r23,lo8(0)
 2357 00d0 8091 0000 		lds r24,height
 2358 00d4 282F      		mov r18,r24
 2359 00d6 30E0      		ldi r19,lo8(0)
 2360 00d8 CB01      		movw r24,r22
 2361 00da 821B      		sub r24,r18
 2362 00dc 930B      		sbc r25,r19
 2363 00de 8815      		cp r24,r8
 2364 00e0 9905      		cpc r25,r9
 2365 00e2 04F0      		brlt .+2
 2366 00e4 00C0      		rjmp .L111
 2367 00e6 620F      		add r22,r18
 2368 00e8 731F      		adc r23,r19
 2369 00ea 8616      		cp r8,r22
 2370 00ec 9706      		cpc r9,r23
 2371 00ee 04F0      		brlt .+2
 2372 00f0 00C0      		rjmp .L111
 2373               	.LSM243:
 2374 00f2 1092 0000 		sts (GAMEON)+1,__zero_reg__
 2375 00f6 1092 0000 		sts GAMEON,__zero_reg__
 2376               	.LSM244:
 2377 00fa 8091 0000 		lds r24,Lives
 2378 00fe 9091 0000 		lds r25,(Lives)+1
 2379 0102 1816      		cp __zero_reg__,r24
 2380 0104 1906      		cpc __zero_reg__,r25
 2381 0106 04F4      		brge .L112
 2382 0108 88EB      		ldi r24,lo8(3000)
 2383 010a 9BE0      		ldi r25,hi8(3000)
 2384               	.LVL122:
 2385               	.L113:
 2386               	.LBB92:
 2387               	.LBB93:
 2388               	.LBB94:
 2389               	.LBB95:
 2390               	.LSM245:
 2391 010c F601      		movw r30,r12
 2392               	.LVL123:
 2393               	/* #APP */
 2394               	 ;  105 "c:/winavr-20100110/lib/gcc/../../avr/include/util/delay_basic.h" 1
 2395 010e 3197      		1: sbiw r30,1
 2396 0110 01F4      		brne 1b
 2397               	 ;  0 "" 2
 2398               	/* #NOAPP */
 2399               	.LBE95:
 2400               	.LBE94:
 2401               	.LSM246:
 2402 0112 0197      		sbiw r24,1
 2403               	.LSM247:
 2404 0114 01F4      		brne .L113
 2405               	.LBE93:
 2406               	.LBE92:
 2407               	.LSM248:
 2408 0116 0E94 0000 		call clear
 2409               	.LVL124:
 2410               	.LSM249:
 2411 011a 80E0      		ldi r24,lo8(.LC6)
 2412 011c 90E0      		ldi r25,hi8(.LC6)
 2413 011e 60E0      		ldi r22,lo8(0)
 2414 0120 4A2D      		mov r20,r10
 2415 0122 0E94 0000 		call draw_string
 2416               	.LSM250:
 2417 0126 0E94 0000 		call refresh
 2418 012a 88E9      		ldi r24,lo8(15000)
 2419 012c 9AE3      		ldi r25,hi8(15000)
 2420               	.LVL125:
 2421               	.L114:
 2422               	.LBB96:
 2423               	.LBB97:
 2424               	.LBB98:
 2425               	.LBB99:
 2426               	.LSM251:
 2427 012e F601      		movw r30,r12
 2428               	.LVL126:
 2429               	/* #APP */
 2430               	 ;  105 "c:/winavr-20100110/lib/gcc/../../avr/include/util/delay_basic.h" 1
 2431 0130 3197      		1: sbiw r30,1
 2432 0132 01F4      		brne 1b
 2433               	 ;  0 "" 2
 2434               	/* #NOAPP */
 2435               	.LBE99:
 2436               	.LBE98:
 2437               	.LSM252:
 2438 0134 0197      		sbiw r24,1
 2439               	.LSM253:
 2440 0136 01F4      		brne .L114
 2441               	.LBE97:
 2442               	.LBE96:
 2443               	.LSM254:
 2444 0138 8091 0000 		lds r24,Lives
 2445 013c 9091 0000 		lds r25,(Lives)+1
 2446               	.LVL127:
 2447 0140 0197      		sbiw r24,1
 2448 0142 9093 0000 		sts (Lives)+1,r25
 2449 0146 8093 0000 		sts Lives,r24
 2450               	.LSM255:
 2451 014a 0E94 0000 		call setupHero
 2452               	.LVL128:
 2453               	.LSM256:
 2454 014e 0E94 0000 		call setupZombies
 2455 0152 00C0      		rjmp .L115
 2456               	.L112:
 2457 0154 88EB      		ldi r24,lo8(3000)
 2458 0156 9BE0      		ldi r25,hi8(3000)
 2459               	.LVL129:
 2460               	.L116:
 2461               	.LBB100:
 2462               	.LBB91:
 2463               	.LBB90:
 2464               	.LBB89:
 2465               	.LSM257:
 2466 0158 F601      		movw r30,r12
 2467               	.LVL130:
 2468               	/* #APP */
 2469               	 ;  105 "c:/winavr-20100110/lib/gcc/../../avr/include/util/delay_basic.h" 1
 2470 015a 3197      		1: sbiw r30,1
 2471 015c 01F4      		brne 1b
 2472               	 ;  0 "" 2
 2473               	/* #NOAPP */
 2474               	.LBE89:
 2475               	.LBE90:
 2476               	.LSM258:
 2477 015e 0197      		sbiw r24,1
 2478               	.LSM259:
 2479 0160 01F4      		brne .L116
 2480               	.LBE91:
 2481               	.LBE100:
 2482               	.LSM260:
 2483 0162 0E94 0000 		call clear
 2484               	.LVL131:
 2485               	.LSM261:
 2486 0166 80E0      		ldi r24,lo8(.LC7)
 2487 0168 90E0      		ldi r25,hi8(.LC7)
 2488 016a 6B2D      		mov r22,r11
 2489 016c 4A2D      		mov r20,r10
 2490 016e 0E94 0000 		call draw_string
 2491               	.LSM262:
 2492 0172 0E94 0000 		call refresh
 2493 0176 88E9      		ldi r24,lo8(15000)
 2494 0178 9AE3      		ldi r25,hi8(15000)
 2495               	.LVL132:
 2496               	.L117:
 2497               	.LBB101:
 2498               	.LBB102:
 2499               	.LBB103:
 2500               	.LBB104:
 2501               	.LSM263:
 2502 017a F601      		movw r30,r12
 2503               	.LVL133:
 2504               	/* #APP */
 2505               	 ;  105 "c:/winavr-20100110/lib/gcc/../../avr/include/util/delay_basic.h" 1
 2506 017c 3197      		1: sbiw r30,1
 2507 017e 01F4      		brne 1b
 2508               	 ;  0 "" 2
 2509               	/* #NOAPP */
 2510               	.LBE104:
 2511               	.LBE103:
 2512               	.LSM264:
 2513 0180 0197      		sbiw r24,1
 2514               	.LSM265:
 2515 0182 01F4      		brne .L117
 2516               	.LBE102:
 2517               	.LBE101:
 2518               	.LSM266:
 2519 0184 0E94 0000 		call setupGame
 2520               	.LVL134:
 2521               	.LSM267:
 2522 0188 0E94 0000 		call setupHero
 2523               	.LSM268:
 2524 018c 0E94 0000 		call setupZombies
 2525               	.LSM269:
 2526 0190 0E94 0000 		call setupPit
 2527               	.L115:
 2528               	.LSM270:
 2529 0194 5092 0000 		sts (GAMEON)+1,r5
 2530 0198 4092 0000 		sts GAMEON,r4
 2531               	.L111:
 2532 019c 2296      		adiw r28,2
 2533               	.LBE84:
 2534               	.LSM271:
 2535 019e 80E0      		ldi r24,hi8(zombie+16)
 2536 01a0 C030      		cpi r28,lo8(zombie+16)
 2537 01a2 D807      		cpc r29,r24
 2538 01a4 01F0      		breq .+2
 2539 01a6 00C0      		rjmp .L118
 2540               	/* epilogue start */
 2541               	.LBE83:
 2542               	.LSM272:
 2543 01a8 DF91      		pop r29
 2544 01aa CF91      		pop r28
 2545 01ac 1F91      		pop r17
 2546 01ae 0F91      		pop r16
 2547 01b0 FF90      		pop r15
 2548 01b2 EF90      		pop r14
 2549 01b4 DF90      		pop r13
 2550 01b6 CF90      		pop r12
 2551 01b8 BF90      		pop r11
 2552 01ba AF90      		pop r10
 2553               	.LVL135:
 2554 01bc 9F90      		pop r9
 2555 01be 8F90      		pop r8
 2556 01c0 7F90      		pop r7
 2557 01c2 6F90      		pop r6
 2558 01c4 5F90      		pop r5
 2559 01c6 4F90      		pop r4
 2560 01c8 0895      		ret
 2561               	.LFE22:
 2563               		.section	.text.main,"ax",@progbits
 2564               	.global	main
 2566               	main:
 2567               	.LFB7:
 2568               	.LSM273:
 2569 0000 5F92      		push r5
 2570 0002 6F92      		push r6
 2571 0004 7F92      		push r7
 2572 0006 8F92      		push r8
 2573 0008 9F92      		push r9
 2574 000a AF92      		push r10
 2575 000c BF92      		push r11
 2576 000e CF92      		push r12
 2577 0010 DF92      		push r13
 2578 0012 EF92      		push r14
 2579 0014 FF92      		push r15
 2580 0016 0F93      		push r16
 2581 0018 1F93      		push r17
 2582 001a DF93      		push r29
 2583 001c CF93      		push r28
 2584 001e CDB7      		in r28,__SP_L__
 2585 0020 DEB7      		in r29,__SP_H__
 2586 0022 C05F      		subi r28,lo8(-(-240))
 2587 0024 D040      		sbci r29,hi8(-(-240))
 2588 0026 0FB6      		in __tmp_reg__,__SREG__
 2589 0028 F894      		cli
 2590 002a DEBF      		out __SP_H__,r29
 2591 002c 0FBE      		out __SREG__,__tmp_reg__
 2592 002e CDBF      		out __SP_L__,r28
 2593               	/* prologue: function */
 2594               	/* frame size = 240 */
 2595               	.LSM274:
 2596 0030 0E94 0000 		call setupGame
 2597               	.LSM275:
 2598 0034 0E94 0000 		call clear
 2599               	.LSM276:
 2600 0038 0E94 0000 		call refresh
 2601               	.LSM277:
 2602 003c DE01      		movw r26,r28
 2603 003e 1196      		adiw r26,1
 2604 0040 E0E0      		ldi r30,lo8(C.0.1775)
 2605 0042 F0E0      		ldi r31,hi8(C.0.1775)
 2606 0044 83E0      		ldi r24,lo8(3)
 2607               	.L126:
 2608 0046 0190      		ld r0,Z+
 2609 0048 0D92      		st X+,r0
 2610 004a 8150      		subi r24,lo8(-(-1))
 2611 004c 01F4      		brne .L126
 2612               	.LSM278:
 2613 004e DE01      		movw r26,r28
 2614 0050 1496      		adiw r26,4
 2615 0052 E0E0      		ldi r30,lo8(C.1.1776)
 2616 0054 F0E0      		ldi r31,hi8(C.1.1776)
 2617 0056 83E0      		ldi r24,lo8(3)
 2618               	.L127:
 2619 0058 0190      		ld r0,Z+
 2620 005a 0D92      		st X+,r0
 2621 005c 8150      		subi r24,lo8(-(-1))
 2622 005e 01F4      		brne .L127
 2623               	.LSM279:
 2624 0060 DE01      		movw r26,r28
 2625 0062 1796      		adiw r26,7
 2626 0064 E0E0      		ldi r30,lo8(C.2.1777)
 2627 0066 F0E0      		ldi r31,hi8(C.2.1777)
 2628 0068 83E0      		ldi r24,lo8(3)
 2629               	.L128:
 2630 006a 0190      		ld r0,Z+
 2631 006c 0D92      		st X+,r0
 2632 006e 8150      		subi r24,lo8(-(-1))
 2633 0070 01F4      		brne .L128
 2634               	.LSM280:
 2635 0072 8091 0000 		lds r24,width
 2636 0076 2091 0000 		lds r18,screen_x
 2637 007a 3091 0000 		lds r19,(screen_x)+1
 2638 007e 281B      		sub r18,r24
 2639 0080 3109      		sbc r19,__zero_reg__
 2640 0082 3093 0000 		sts (screen_x)+1,r19
 2641 0086 2093 0000 		sts screen_x,r18
 2642               	.LSM281:
 2643 008a 4091 0000 		lds r20,height
 2644 008e 8091 0000 		lds r24,screen_y
 2645 0092 9091 0000 		lds r25,(screen_y)+1
 2646 0096 841B      		sub r24,r20
 2647 0098 9109      		sbc r25,__zero_reg__
 2648 009a 9093 0000 		sts (screen_y)+1,r25
 2649 009e 8093 0000 		sts screen_y,r24
 2650               	.LSM282:
 2651 00a2 62E0      		ldi r22,lo8(2)
 2652 00a4 70E0      		ldi r23,hi8(2)
 2653 00a6 0E94 0000 		call __divmodhi4
 2654 00aa 4B01      		movw r8,r22
 2655               	.LVL136:
 2656 00ac 85E0      		ldi r24,lo8(5)
 2657 00ae 90E0      		ldi r25,hi8(5)
 2658 00b0 880E      		add r8,r24
 2659 00b2 991E      		adc r9,r25
 2660 00b4 F9E4      		ldi r31,lo8(73)
 2661 00b6 CF2E      		mov r12,r31
 2662 00b8 D12C      		mov r13,__zero_reg__
 2663 00ba CC0E      		add r12,r28
 2664 00bc DD1E      		adc r13,r29
 2665 00be C901      		movw r24,r18
 2666 00c0 62E0      		ldi r22,lo8(2)
 2667 00c2 70E0      		ldi r23,hi8(2)
 2668 00c4 0E94 0000 		call __divmodhi4
 2669 00c8 562E      		mov r5,r22
 2670 00ca E0E0      		ldi r30,lo8(zombie)
 2671 00cc AE2E      		mov r10,r30
 2672 00ce E0E0      		ldi r30,hi8(zombie)
 2673 00d0 BE2E      		mov r11,r30
 2674 00d2 162F      		mov r17,r22
 2675               	.LBB105:
 2676               	.LSM283:
 2677 00d4 74E0      		ldi r23,lo8(4)
 2678 00d6 672E      		mov r6,r23
 2679 00d8 712C      		mov r7,__zero_reg__
 2680 00da 6C0E      		add r6,r28
 2681 00dc 7D1E      		adc r7,r29
 2682               	.L129:
 2683               	.LSM284:
 2684 00de F501      		movw r30,r10
 2685 00e0 C082      		st Z,r12
 2686 00e2 D182      		std Z+1,r13
 2687               	.LSM285:
 2688 00e4 C601      		movw r24,r12
 2689 00e6 612F      		mov r22,r17
 2690 00e8 482D      		mov r20,r8
 2691 00ea 2091 0000 		lds r18,width
 2692 00ee 0091 0000 		lds r16,height
 2693 00f2 7301      		movw r14,r6
 2694 00f4 0E94 0000 		call init_sprite
 2695 00f8 82E0      		ldi r24,lo8(2)
 2696 00fa 90E0      		ldi r25,hi8(2)
 2697 00fc A80E      		add r10,r24
 2698 00fe B91E      		adc r11,r25
 2699 0100 E5E1      		ldi r30,lo8(21)
 2700 0102 F0E0      		ldi r31,hi8(21)
 2701 0104 CE0E      		add r12,r30
 2702 0106 DF1E      		adc r13,r31
 2703 0108 1D5F      		subi r17,lo8(-(3))
 2704               	.LSM286:
 2705 010a F0E0      		ldi r31,lo8(zombie+16)
 2706 010c AF16      		cp r10,r31
 2707 010e F0E0      		ldi r31,hi8(zombie+16)
 2708 0110 BF06      		cpc r11,r31
 2709 0112 01F4      		brne .L129
 2710               	.LBE105:
 2711               	.LSM287:
 2712 0114 CE01      		movw r24,r28
 2713 0116 0A96      		adiw r24,10
 2714 0118 9093 0000 		sts (sword)+1,r25
 2715 011c 8093 0000 		sts sword,r24
 2716               	.LSM288:
 2717 0120 9E01      		movw r18,r28
 2718 0122 215E      		subi r18,lo8(-(31))
 2719 0124 3F4F      		sbci r19,hi8(-(31))
 2720 0126 3093 0000 		sts (swordStatus)+1,r19
 2721 012a 2093 0000 		sts swordStatus,r18
 2722               	.LSM289:
 2723 012e 67E0      		ldi r22,lo8(7)
 2724 0130 C62E      		mov r12,r22
 2725 0132 D12C      		mov r13,__zero_reg__
 2726 0134 CC0E      		add r12,r28
 2727 0136 DD1E      		adc r13,r29
 2728 0138 66EF      		ldi r22,lo8(-10)
 2729 013a 46EF      		ldi r20,lo8(-10)
 2730 013c 2091 0000 		lds r18,width
 2731 0140 0091 0000 		lds r16,height
 2732 0144 7601      		movw r14,r12
 2733 0146 0E94 0000 		call init_sprite
 2734               	.LSM290:
 2735 014a 8091 0000 		lds r24,swordStatus
 2736 014e 9091 0000 		lds r25,(swordStatus)+1
 2737 0152 66EF      		ldi r22,lo8(-10)
 2738 0154 46EF      		ldi r20,lo8(-10)
 2739 0156 2091 0000 		lds r18,width
 2740 015a 0091 0000 		lds r16,height
 2741 015e 0E94 0000 		call init_sprite
 2742               	.LSM291:
 2743 0162 0E94 0000 		call setupSword
 2744               	.LSM292:
 2745 0166 0E94 0000 		call setupZombies
 2746               	.LSM293:
 2747 016a 0E94 0000 		call setupPit
 2748               	.LSM294:
 2749 016e CE01      		movw r24,r28
 2750 0170 C496      		adiw r24,52
 2751 0172 9093 0000 		sts (my_pointer)+1,r25
 2752 0176 8093 0000 		sts my_pointer,r24
 2753               	.LSM295:
 2754 017a 652D      		mov r22,r5
 2755 017c 482D      		mov r20,r8
 2756 017e 2091 0000 		lds r18,width
 2757 0182 0091 0000 		lds r16,height
 2758 0186 7E01      		movw r14,r28
 2759 0188 0894      		sec
 2760 018a E11C      		adc r14,__zero_reg__
 2761 018c F11C      		adc r15,__zero_reg__
 2762 018e 0E94 0000 		call init_sprite
 2763               	.LSM296:
 2764 0192 8091 0000 		lds r24,my_pointer
 2765 0196 9091 0000 		lds r25,(my_pointer)+1
 2766 019a 0E94 0000 		call draw_sprite
 2767 019e 50EF      		ldi r21,lo8(-16)
 2768 01a0 E52E      		mov r14,r21
 2769 01a2 5FEF      		ldi r21,hi8(-16)
 2770 01a4 F52E      		mov r15,r21
 2771 01a6 EA0C      		add r14,r10
 2772 01a8 FB1C      		adc r15,r11
 2773               	.L130:
 2774               	.LBB106:
 2775               	.LSM297:
 2776 01aa F701      		movw r30,r14
 2777 01ac 8191      		ld r24,Z+
 2778 01ae 9191      		ld r25,Z+
 2779 01b0 7F01      		movw r14,r30
 2780 01b2 0E94 0000 		call draw_sprite
 2781               	.LSM298:
 2782 01b6 F0E0      		ldi r31,lo8(zombie+16)
 2783 01b8 EF16      		cp r14,r31
 2784 01ba F0E0      		ldi r31,hi8(zombie+16)
 2785 01bc FF06      		cpc r15,r31
 2786 01be 01F4      		brne .L130
 2787               	.LBE106:
 2788               	.LSM299:
 2789 01c0 0E94 0000 		call refresh
 2790 01c4 88EE      		ldi r24,lo8(1000)
 2791 01c6 93E0      		ldi r25,hi8(1000)
 2792               	.LVL137:
 2793               	.LBB107:
 2794               	.LBB108:
 2795               	.LBB109:
 2796               	.LBB110:
 2797               	.LSM300:
 2798 01c8 20E9      		ldi r18,lo8(400)
 2799 01ca 31E0      		ldi r19,hi8(400)
 2800               	.L131:
 2801 01cc F901      		movw r30,r18
 2802               	.LVL138:
 2803               	/* #APP */
 2804               	 ;  105 "c:/winavr-20100110/lib/gcc/../../avr/include/util/delay_basic.h" 1
 2805 01ce 3197      		1: sbiw r30,1
 2806 01d0 01F4      		brne 1b
 2807               	 ;  0 "" 2
 2808               	/* #NOAPP */
 2809               	.LBE110:
 2810               	.LBE109:
 2811               	.LSM301:
 2812 01d2 0197      		sbiw r24,1
 2813               	.LSM302:
 2814 01d4 01F4      		brne .L131
 2815               	.LBE108:
 2816               	.LBE107:
 2817               	.LSM303:
 2818 01d6 81E0      		ldi r24,lo8(1)
 2819 01d8 90E0      		ldi r25,hi8(1)
 2820               	.LVL139:
 2821 01da 9093 0000 		sts (GAMEON)+1,r25
 2822 01de 8093 0000 		sts GAMEON,r24
 2823 01e2 01E0      		ldi r16,lo8(1)
 2824 01e4 10E0      		ldi r17,hi8(1)
 2825               	.LVL140:
 2826 01e6 41E0      		ldi r20,lo8(1)
 2827 01e8 C42E      		mov r12,r20
 2828 01ea D12C      		mov r13,__zero_reg__
 2829               	.LVL141:
 2830               	.LSM304:
 2831 01ec 33E0      		ldi r19,lo8(3)
 2832 01ee A32E      		mov r10,r19
 2833 01f0 B12C      		mov r11,__zero_reg__
 2834 01f2 00C0      		rjmp .L132
 2835               	.L139:
 2836               	.LSM305:
 2837 01f4 0E94 0000 		call clear
 2838               	.LVL142:
 2839               	.LSM306:
 2840 01f8 8091 0000 		lds r24,RIGHT
 2841 01fc 9091 0000 		lds r25,(RIGHT)+1
 2842 0200 892B      		or r24,r25
 2843 0202 01F4      		brne .L133
 2844 0204 01E0      		ldi r16,lo8(1)
 2845 0206 10E0      		ldi r17,hi8(1)
 2846               	.L133:
 2847               	.LSM307:
 2848 0208 8091 0000 		lds r24,LEFT
 2849 020c 9091 0000 		lds r25,(LEFT)+1
 2850 0210 892B      		or r24,r25
 2851 0212 01F4      		brne .L134
 2852 0214 21E0      		ldi r18,lo8(1)
 2853 0216 C22E      		mov r12,r18
 2854 0218 D12C      		mov r13,__zero_reg__
 2855               	.L134:
 2856               	.LSM308:
 2857 021a 8091 0000 		lds r24,RIGHT
 2858 021e 9091 0000 		lds r25,(RIGHT)+1
 2859 0222 892B      		or r24,r25
 2860 0224 01F0      		breq .L135
 2861 0226 0115      		cp r16,__zero_reg__
 2862 0228 1105      		cpc r17,__zero_reg__
 2863 022a 01F0      		breq .L135
 2864               	.LSM309:
 2865 022c 8091 0000 		lds r24,Direction
 2866 0230 9091 0000 		lds r25,(Direction)+1
 2867 0234 0197      		sbiw r24,1
 2868 0236 9093 0000 		sts (Direction)+1,r25
 2869 023a 8093 0000 		sts Direction,r24
 2870               	.LSM310:
 2871 023e 8091 0000 		lds r24,Direction
 2872 0242 9091 0000 		lds r25,(Direction)+1
 2873 0246 97FF      		sbrs r25,7
 2874 0248 00C0      		rjmp .L148
 2875               	.L136:
 2876               	.LSM311:
 2877 024a B092 0000 		sts (Direction)+1,r11
 2878 024e A092 0000 		sts Direction,r10
 2879               	.L148:
 2880 0252 00E0      		ldi r16,lo8(0)
 2881 0254 10E0      		ldi r17,hi8(0)
 2882               	.L135:
 2883               	.LSM312:
 2884 0256 8091 0000 		lds r24,LEFT
 2885 025a 9091 0000 		lds r25,(LEFT)+1
 2886 025e 8C21      		and r24,r12
 2887 0260 9D21      		and r25,r13
 2888 0262 892B      		or r24,r25
 2889 0264 01F0      		breq .L137
 2890               	.LSM313:
 2891 0266 8091 0000 		lds r24,Direction
 2892 026a 9091 0000 		lds r25,(Direction)+1
 2893 026e 0196      		adiw r24,1
 2894 0270 64E0      		ldi r22,lo8(4)
 2895 0272 70E0      		ldi r23,hi8(4)
 2896 0274 0E94 0000 		call __divmodhi4
 2897 0278 9093 0000 		sts (Direction)+1,r25
 2898 027c 8093 0000 		sts Direction,r24
 2899 0280 CC24      		clr r12
 2900 0282 DD24      		clr r13
 2901               	.L137:
 2902               	.LSM314:
 2903 0284 8091 0000 		lds r24,my_pointer
 2904 0288 9091 0000 		lds r25,(my_pointer)+1
 2905 028c 0E94 0000 		call draw_sprite
 2906               	.LSM315:
 2907 0290 8091 0000 		lds r24,sword
 2908 0294 9091 0000 		lds r25,(sword)+1
 2909 0298 0E94 0000 		call draw_sprite
 2910 029c 90E0      		ldi r25,lo8(zombie)
 2911 029e E92E      		mov r14,r25
 2912 02a0 90E0      		ldi r25,hi8(zombie)
 2913 02a2 F92E      		mov r15,r25
 2914               	.L138:
 2915               	.LBB111:
 2916               	.LSM316:
 2917 02a4 F701      		movw r30,r14
 2918 02a6 8191      		ld r24,Z+
 2919 02a8 9191      		ld r25,Z+
 2920 02aa 7F01      		movw r14,r30
 2921 02ac 0E94 0000 		call draw_sprite
 2922               	.LSM317:
 2923 02b0 F0E0      		ldi r31,lo8(zombie+16)
 2924 02b2 EF16      		cp r14,r31
 2925 02b4 F0E0      		ldi r31,hi8(zombie+16)
 2926 02b6 FF06      		cpc r15,r31
 2927 02b8 01F4      		brne .L138
 2928               	.LBE111:
 2929               	.LSM318:
 2930 02ba 0E94 0000 		call drawPit
 2931               	.LSM319:
 2932 02be 0E94 0000 		call drawScreen
 2933               	.LSM320:
 2934 02c2 0E94 0000 		call refresh
 2935               	.LSM321:
 2936 02c6 0E94 0000 		call collision
 2937               	.LVL143:
 2938               	.L132:
 2939               	.LSM322:
 2940 02ca 8091 0000 		lds r24,GAMEON
 2941 02ce 9091 0000 		lds r25,(GAMEON)+1
 2942 02d2 892B      		or r24,r25
 2943 02d4 01F0      		breq .+2
 2944 02d6 00C0      		rjmp .L139
 2945               	.LSM323:
 2946 02d8 80E0      		ldi r24,lo8(0)
 2947 02da 90E0      		ldi r25,hi8(0)
 2948               	/* epilogue start */
 2949 02dc C051      		subi r28,lo8(-(240))
 2950 02de DF4F      		sbci r29,hi8(-(240))
 2951 02e0 0FB6      		in __tmp_reg__,__SREG__
 2952 02e2 F894      		cli
 2953 02e4 DEBF      		out __SP_H__,r29
 2954 02e6 0FBE      		out __SREG__,__tmp_reg__
 2955 02e8 CDBF      		out __SP_L__,r28
 2956 02ea CF91      		pop r28
 2957 02ec DF91      		pop r29
 2958 02ee 1F91      		pop r17
 2959 02f0 0F91      		pop r16
 2960               	.LVL144:
 2961 02f2 FF90      		pop r15
 2962 02f4 EF90      		pop r14
 2963 02f6 DF90      		pop r13
 2964 02f8 CF90      		pop r12
 2965               	.LVL145:
 2966 02fa BF90      		pop r11
 2967 02fc AF90      		pop r10
 2968 02fe 9F90      		pop r9
 2969 0300 8F90      		pop r8
 2970               	.LVL146:
 2971 0302 7F90      		pop r7
 2972 0304 6F90      		pop r6
 2973 0306 5F90      		pop r5
 2974 0308 0895      		ret
 2975               	.LFE7:
 2977               	.global	LEFT
 2978               	.global	LEFT
 2979               		.section .bss
 2982               	LEFT:
 2983 0000 0000      		.skip 2,0
 2984               	.global	RIGHT
 2985               	.global	RIGHT
 2988               	RIGHT:
 2989 0002 0000      		.skip 2,0
 2990               	.global	screen_x
 2991               		.data
 2994               	screen_x:
 2995 005f 5300      		.word	83
 2996               	.global	screen_x_Full
 2999               	screen_x_Full:
 3000 0061 5300      		.word	83
 3001               	.global	screen_y
 3004               	screen_y:
 3005 0063 2F00      		.word	47
 3006               	.global	screen_y_Full
 3009               	screen_y_Full:
 3010 0065 2F00      		.word	47
 3011               	.global	charWidth
 3014               	charWidth:
 3015 0067 0800      		.word	8
 3016               	.global	charHeight
 3019               	charHeight:
 3020 0069 0800      		.word	8
 3021               	.global	previousLEFT
 3022               	.global	previousLEFT
 3023               		.section .bss
 3026               	previousLEFT:
 3027 0004 0000      		.skip 2,0
 3028               	.global	previousRIGHT
 3029               	.global	previousRIGHT
 3032               	previousRIGHT:
 3033 0006 0000      		.skip 2,0
 3034               	.global	buttonPressed
 3035               	.global	buttonPressed
 3038               	buttonPressed:
 3039 0008 0000      		.skip 2,0
 3040               	.global	previousButton
 3041               	.global	previousButton
 3044               	previousButton:
 3045 000a 0000      		.skip 2,0
 3046               	.global	Direction
 3047               		.data
 3050               	Direction:
 3051 006b 0100      		.word	1
 3052               	.global	zDirection
 3055               	zDirection:
 3056 006d 0100      		.word	1
 3057 006f 0000 0000 		.skip 14,0
 3057      0000 0000 
 3057      0000 0000 
 3057      0000 
 3058               	.global	clockCounter
 3059               	.global	clockCounter
 3060               		.section .bss
 3063               	clockCounter:
 3064 000c 0000      		.skip 2,0
 3065               	.global	stepsCounter
 3066               	.global	stepsCounter
 3069               	stepsCounter:
 3070 000e 0000      		.skip 2,0
 3071               	.global	GAMEON
 3072               	.global	GAMEON
 3075               	GAMEON:
 3076 0010 0000      		.skip 2,0
 3077               	.global	width
 3078               		.data
 3081               	width:
 3082 007d 03        		.byte	3
 3083               	.global	height
 3086               	height:
 3087 007e 03        		.byte	3
 3088               	.global	Lives
 3091               	Lives:
 3092 007f 0300      		.word	3
 3093               	.global	Score
 3094               	.global	Score
 3095               		.section .bss
 3098               	Score:
 3099 0012 0000      		.skip 2,0
 3100               		.data
 3103               	C.2.1777:
 3104 0081 20        		.byte	32
 3105 0082 E0        		.byte	-32
 3106 0083 20        		.byte	32
 3109               	C.1.1776:
 3110 0084 E0        		.byte	-32
 3111 0085 40        		.byte	64
 3112 0086 E0        		.byte	-32
 3115               	C.0.1775:
 3116 0087 A0        		.byte	-96
 3117 0088 E0        		.byte	-32
 3118 0089 A0        		.byte	-96
 3119               		.comm Touched,2,1
 3120               		.comm Over,2,1
 3121               		.comm pitLeft,2,1
 3122               		.comm pitRight,2,1
 3123               		.comm pitTop,2,1
 3124               		.comm pitBottom,2,1
 3125               		.comm my_pointer,2,1
 3126               		.comm my_pointer2,2,1
 3127               		.comm zombie,16,1
 3128               		.comm sword,2,1
 3129               		.comm swordStatus,2,1
 3306               	.Letext0:
DEFINED SYMBOLS
                            *ABS*:00000000 solution.c
C:\cygwin\tmp/ccWKtUyN.s:2      *ABS*:0000003f __SREG__
C:\cygwin\tmp/ccWKtUyN.s:3      *ABS*:0000003e __SP_H__
C:\cygwin\tmp/ccWKtUyN.s:4      *ABS*:0000003d __SP_L__
C:\cygwin\tmp/ccWKtUyN.s:5      *ABS*:00000034 __CCP__
C:\cygwin\tmp/ccWKtUyN.s:6      *ABS*:00000000 __tmp_reg__
C:\cygwin\tmp/ccWKtUyN.s:7      *ABS*:00000001 __zero_reg__
C:\cygwin\tmp/ccWKtUyN.s:19     .text.buttonCheck:00000000 buttonCheck
C:\cygwin\tmp/ccWKtUyN.s:2988   .bss:00000002 RIGHT
C:\cygwin\tmp/ccWKtUyN.s:2982   .bss:00000000 LEFT
C:\cygwin\tmp/ccWKtUyN.s:117    .text.PinChangeInit:00000000 PinChangeInit
C:\cygwin\tmp/ccWKtUyN.s:158    .text.__vector_9:00000000 __vector_9
C:\cygwin\tmp/ccWKtUyN.s:207    .text.TimerInit:00000000 TimerInit
C:\cygwin\tmp/ccWKtUyN.s:248    .text.setupHero:00000000 setupHero
C:\cygwin\tmp/ccWKtUyN.s:3004   .data:00000063 screen_y
                            *COM*:00000002 my_pointer
C:\cygwin\tmp/ccWKtUyN.s:2994   .data:0000005f screen_x
C:\cygwin\tmp/ccWKtUyN.s:318    .text.isInPit:00000000 isInPit
                            *COM*:00000002 pitLeft
C:\cygwin\tmp/ccWKtUyN.s:3081   .data:0000007d width
                            *COM*:00000002 pitRight
                            *COM*:00000002 pitTop
C:\cygwin\tmp/ccWKtUyN.s:3086   .data:0000007e height
                            *COM*:00000002 pitBottom
C:\cygwin\tmp/ccWKtUyN.s:404    .text.heroForward:00000000 heroForward
C:\cygwin\tmp/ccWKtUyN.s:3050   .data:0000006b Direction
C:\cygwin\tmp/ccWKtUyN.s:836    .text.drawPit:00000000 drawPit
C:\cygwin\tmp/ccWKtUyN.s:878    .text.drawScreen:00000000 drawScreen
C:\cygwin\tmp/ccWKtUyN.s:2999   .data:00000061 screen_x_Full
C:\cygwin\tmp/ccWKtUyN.s:3009   .data:00000065 screen_y_Full
C:\cygwin\tmp/ccWKtUyN.s:3091   .data:0000007f Lives
C:\cygwin\tmp/ccWKtUyN.s:3098   .bss:00000012 Score
C:\cygwin\tmp/ccWKtUyN.s:957    .text.CountDown:00000000 CountDown
C:\cygwin\tmp/ccWKtUyN.s:1038   .text.seedWithButtonPress:00000000 seedWithButtonPress
C:\cygwin\tmp/ccWKtUyN.s:1082   .text.randInRange:00000000 randInRange
C:\cygwin\tmp/ccWKtUyN.s:1122   .text.setupSword:00000000 setupSword
                            *COM*:00000002 sword
C:\cygwin\tmp/ccWKtUyN.s:1203   .text.setupPit:00000000 setupPit
C:\cygwin\tmp/ccWKtUyN.s:1274   .text.setupZombies:00000000 setupZombies
                            *COM*:00000010 zombie
C:\cygwin\tmp/ccWKtUyN.s:3055   .data:0000006d zDirection
C:\cygwin\tmp/ccWKtUyN.s:1705   .text.zombiesForward:00000000 zombiesForward
C:\cygwin\tmp/ccWKtUyN.s:2066   .text.__vector_23:00000000 __vector_23
C:\cygwin\tmp/ccWKtUyN.s:3063   .bss:0000000c clockCounter
C:\cygwin\tmp/ccWKtUyN.s:3075   .bss:00000010 GAMEON
C:\cygwin\tmp/ccWKtUyN.s:3069   .bss:0000000e stepsCounter
C:\cygwin\tmp/ccWKtUyN.s:2159   .text.setupGame:00000000 setupGame
C:\cygwin\tmp/ccWKtUyN.s:2236   .text.collision:00000000 collision
C:\cygwin\tmp/ccWKtUyN.s:2566   .text.main:00000000 main
C:\cygwin\tmp/ccWKtUyN.s:3115   .data:00000087 C.0.1775
C:\cygwin\tmp/ccWKtUyN.s:3109   .data:00000084 C.1.1776
C:\cygwin\tmp/ccWKtUyN.s:3103   .data:00000081 C.2.1777
                            *COM*:00000002 swordStatus
C:\cygwin\tmp/ccWKtUyN.s:3014   .data:00000067 charWidth
C:\cygwin\tmp/ccWKtUyN.s:3019   .data:00000069 charHeight
C:\cygwin\tmp/ccWKtUyN.s:3026   .bss:00000004 previousLEFT
C:\cygwin\tmp/ccWKtUyN.s:3032   .bss:00000006 previousRIGHT
C:\cygwin\tmp/ccWKtUyN.s:3038   .bss:00000008 buttonPressed
C:\cygwin\tmp/ccWKtUyN.s:3044   .bss:0000000a previousButton
                            *COM*:00000002 Touched
                            *COM*:00000002 Over
                            *COM*:00000002 my_pointer2

UNDEFINED SYMBOLS
__divmodhi4
__floatsisf
__fixsfsi
__gtsf2
__ltsf2
__addsf3
draw_line
draw_string
draw_character
clear
refresh
srand
rand
__floatunsisf
LCDInitialise
__fixunssfsi
init_sprite
draw_sprite
__do_copy_data
__do_clear_bss
