   1               		.file	"solution.c"
   2               	__SREG__ = 0x3f
   3               	__SP_H__ = 0x3e
   4               	__SP_L__ = 0x3d
   5               	__CCP__  = 0x34
   6               	__tmp_reg__ = 0
   7               	__zero_reg__ = 1
  15               	.Ltext0:
  16               		.section	.text.buttonCheck,"ax",@progbits
  17               	.global	buttonCheck
  19               	buttonCheck:
  20               	.LFB10:
  21               	.LSM0:
  22               	/* prologue: function */
  23               	/* frame size = 0 */
  24               	.LSM1:
  25 0000 1092 0000 		sts (RIGHT)+1,__zero_reg__
  26 0004 1092 0000 		sts RIGHT,__zero_reg__
  27 0008 1092 0000 		sts (LEFT)+1,__zero_reg__
  28 000c 1092 0000 		sts LEFT,__zero_reg__
  29               	.LSM2:
  30 0010 199B      		sbis 35-32,1
  31 0012 00C0      		rjmp .L2
  32 0014 84EF      		ldi r24,lo8(500)
  33 0016 91E0      		ldi r25,hi8(500)
  34               	.LVL0:
  35               	.LBB72:
  36               	.LBB73:
  37               	.LBB74:
  38               	.LBB75:
  39               	.LSM3:
  40 0018 20E9      		ldi r18,lo8(400)
  41 001a 31E0      		ldi r19,hi8(400)
  42               	.L3:
  43 001c F901      		movw r30,r18
  44               	.LVL1:
  45               	/* #APP */
  46               	 ;  105 "c:/winavr-20100110/lib/gcc/../../avr/include/util/delay_basic.h" 1
  47 001e 3197      		1: sbiw r30,1
  48 0020 01F4      		brne 1b
  49               	 ;  0 "" 2
  50               	/* #NOAPP */
  51               	.LBE75:
  52               	.LBE74:
  53               	.LSM4:
  54 0022 0197      		sbiw r24,1
  55               	.LSM5:
  56 0024 01F4      		brne .L3
  57               	.LBE73:
  58               	.LBE72:
  59               	.LSM6:
  60 0026 199B      		sbis 35-32,1
  61 0028 00C0      		rjmp .L2
  62               	.LSM7:
  63 002a 81E0      		ldi r24,lo8(1)
  64 002c 90E0      		ldi r25,hi8(1)
  65               	.LVL2:
  66 002e 9093 0000 		sts (RIGHT)+1,r25
  67 0032 8093 0000 		sts RIGHT,r24
  68               	.LVL3:
  69               	.L2:
  70               	.LSM8:
  71 0036 189B      		sbis 35-32,0
  72 0038 00C0      		rjmp .L6
  73 003a 84EF      		ldi r24,lo8(500)
  74 003c 91E0      		ldi r25,hi8(500)
  75               	.LVL4:
  76               	.LBB76:
  77               	.LBB77:
  78               	.LBB78:
  79               	.LBB79:
  80               	.LSM9:
  81 003e 20E9      		ldi r18,lo8(400)
  82 0040 31E0      		ldi r19,hi8(400)
  83               	.L5:
  84 0042 F901      		movw r30,r18
  85               	.LVL5:
  86               	/* #APP */
  87               	 ;  105 "c:/winavr-20100110/lib/gcc/../../avr/include/util/delay_basic.h" 1
  88 0044 3197      		1: sbiw r30,1
  89 0046 01F4      		brne 1b
  90               	 ;  0 "" 2
  91               	/* #NOAPP */
  92               	.LBE79:
  93               	.LBE78:
  94               	.LSM10:
  95 0048 0197      		sbiw r24,1
  96               	.LSM11:
  97 004a 01F4      		brne .L5
  98               	.LBE77:
  99               	.LBE76:
 100               	.LSM12:
 101 004c 189B      		sbis 35-32,0
 102 004e 00C0      		rjmp .L6
 103               	.LSM13:
 104 0050 81E0      		ldi r24,lo8(1)
 105 0052 90E0      		ldi r25,hi8(1)
 106               	.LVL6:
 107 0054 9093 0000 		sts (LEFT)+1,r25
 108 0058 8093 0000 		sts LEFT,r24
 109               	.LVL7:
 110               	.L6:
 111 005c 0895      		ret
 112               	.LFE10:
 114               		.section	.text.PinChangeInit,"ax",@progbits
 115               	.global	PinChangeInit
 117               	PinChangeInit:
 118               	.LFB13:
 119               	.LSM14:
 120               	/* prologue: function */
 121               	/* frame size = 0 */
 122               	.LSM15:
 123 0000 EBE6      		ldi r30,lo8(107)
 124 0002 F0E0      		ldi r31,hi8(107)
 125 0004 8081      		ld r24,Z
 126 0006 8160      		ori r24,lo8(1)
 127 0008 8083      		st Z,r24
 128               	.LSM16:
 129 000a 8081      		ld r24,Z
 130 000c 8260      		ori r24,lo8(2)
 131 000e 8083      		st Z,r24
 132               	.LSM17:
 133 0010 E8E6      		ldi r30,lo8(104)
 134 0012 F0E0      		ldi r31,hi8(104)
 135 0014 8081      		ld r24,Z
 136 0016 8160      		ori r24,lo8(1)
 137 0018 8083      		st Z,r24
 138               	.LSM18:
 139 001a E9E6      		ldi r30,lo8(105)
 140 001c F0E0      		ldi r31,hi8(105)
 141 001e 8081      		ld r24,Z
 142 0020 8160      		ori r24,lo8(1)
 143 0022 8083      		st Z,r24
 144               	.LSM19:
 145               	/* #APP */
 146               	 ;  325 "solution.c" 1
 147 0024 7894      		sei
 148               	 ;  0 "" 2
 149               	/* epilogue start */
 150               	.LSM20:
 151               	/* #NOAPP */
 152 0026 0895      		ret
 153               	.LFE13:
 155               		.section	.text.__vector_9,"ax",@progbits
 156               	.global	__vector_9
 158               	__vector_9:
 159               	.LFB14:
 160               	.LSM21:
 161 0000 1F92      		push __zero_reg__
 162 0002 0F92      		push r0
 163 0004 0FB6      		in r0,__SREG__
 164 0006 0F92      		push r0
 165 0008 1124      		clr __zero_reg__
 166 000a 8F93      		push r24
 167 000c 9F93      		push r25
 168               	/* prologue: Signal */
 169               	/* frame size = 0 */
 170               	.LSM22:
 171 000e 1092 0000 		sts (RIGHT)+1,__zero_reg__
 172 0012 1092 0000 		sts RIGHT,__zero_reg__
 173 0016 1092 0000 		sts (LEFT)+1,__zero_reg__
 174 001a 1092 0000 		sts LEFT,__zero_reg__
 175               	.LSM23:
 176 001e 199B      		sbis 35-32,1
 177 0020 00C0      		rjmp .L12
 178               	.LSM24:
 179 0022 81E0      		ldi r24,lo8(1)
 180 0024 90E0      		ldi r25,hi8(1)
 181 0026 9093 0000 		sts (RIGHT)+1,r25
 182 002a 8093 0000 		sts RIGHT,r24
 183               	.L12:
 184               	.LSM25:
 185 002e 189B      		sbis 35-32,0
 186 0030 00C0      		rjmp .L14
 187               	.LSM26:
 188 0032 81E0      		ldi r24,lo8(1)
 189 0034 90E0      		ldi r25,hi8(1)
 190 0036 9093 0000 		sts (LEFT)+1,r25
 191 003a 8093 0000 		sts LEFT,r24
 192               	.L14:
 193               	/* epilogue start */
 194               	.LSM27:
 195 003e 9F91      		pop r25
 196 0040 8F91      		pop r24
 197 0042 0F90      		pop r0
 198 0044 0FBE      		out __SREG__,r0
 199 0046 0F90      		pop r0
 200 0048 1F90      		pop __zero_reg__
 201 004a 1895      		reti
 202               	.LFE14:
 204               		.section	.text.TimerInit,"ax",@progbits
 205               	.global	TimerInit
 207               	TimerInit:
 208               	.LFB15:
 209               	.LSM28:
 210               	/* prologue: function */
 211               	/* frame size = 0 */
 212               	.LSM29:
 213 0000 84B5      		in r24,68-32
 214 0002 8D7F      		andi r24,lo8(-3)
 215 0004 84BD      		out 68-32,r24
 216               	.LSM30:
 217 0006 85B5      		in r24,69-32
 218 0008 877F      		andi r24,lo8(-9)
 219 000a 85BD      		out 69-32,r24
 220               	.LSM31:
 221 000c 85B5      		in r24,69-32
 222 000e 8560      		ori r24,lo8(5)
 223 0010 85BD      		out 69-32,r24
 224               	.LSM32:
 225 0012 85B5      		in r24,69-32
 226 0014 8D7F      		andi r24,lo8(-3)
 227 0016 85BD      		out 69-32,r24
 228               	.LSM33:
 229 0018 EEE6      		ldi r30,lo8(110)
 230 001a F0E0      		ldi r31,hi8(110)
 231 001c 8081      		ld r24,Z
 232 001e 8160      		ori r24,lo8(1)
 233 0020 8083      		st Z,r24
 234               	.LSM34:
 235               	/* #APP */
 236               	 ;  387 "solution.c" 1
 237 0022 7894      		sei
 238               	 ;  0 "" 2
 239               	/* epilogue start */
 240               	.LSM35:
 241               	/* #NOAPP */
 242 0024 0895      		ret
 243               	.LFE15:
 245               		.section	.text.setupHero,"ax",@progbits
 246               	.global	setupHero
 248               	setupHero:
 249               	.LFB21:
 250               	.LSM36:
 251 0000 CF92      		push r12
 252 0002 DF92      		push r13
 253 0004 EF92      		push r14
 254 0006 FF92      		push r15
 255 0008 0F93      		push r16
 256 000a 1F93      		push r17
 257               	/* prologue: function */
 258               	/* frame size = 0 */
 259               	.LSM37:
 260 000c 8091 0000 		lds r24,screen_y
 261 0010 9091 0000 		lds r25,(screen_y)+1
 262 0014 62E0      		ldi r22,lo8(2)
 263 0016 70E0      		ldi r23,hi8(2)
 264 0018 0E94 0000 		call __divmodhi4
 265 001c 7B01      		movw r14,r22
 266               	.LVL8:
 267 001e 85E0      		ldi r24,lo8(5)
 268 0020 90E0      		ldi r25,hi8(5)
 269 0022 E80E      		add r14,r24
 270 0024 F91E      		adc r15,r25
 271               	.LSM38:
 272 0026 C090 0000 		lds r12,my_pointer
 273 002a D090 0000 		lds r13,(my_pointer)+1
 274 002e 8091 0000 		lds r24,screen_x
 275 0032 9091 0000 		lds r25,(screen_x)+1
 276 0036 62E0      		ldi r22,lo8(2)
 277 0038 70E0      		ldi r23,hi8(2)
 278 003a 0E94 0000 		call __divmodhi4
 279 003e 8827      		clr r24
 280 0040 77FD      		sbrc r23,7
 281 0042 8095      		com r24
 282 0044 982F      		mov r25,r24
 283 0046 0E94 0000 		call __floatsisf
 284 004a F601      		movw r30,r12
 285 004c 6083      		st Z,r22
 286 004e 7183      		std Z+1,r23
 287 0050 8283      		std Z+2,r24
 288 0052 9383      		std Z+3,r25
 289               	.LSM39:
 290 0054 0027      		clr r16
 291 0056 F7FC      		sbrc r15,7
 292 0058 0095      		com r16
 293 005a 102F      		mov r17,r16
 294               	.LVL9:
 295 005c C801      		movw r24,r16
 296 005e B701      		movw r22,r14
 297 0060 0E94 0000 		call __floatsisf
 298 0064 F601      		movw r30,r12
 299 0066 6483      		std Z+4,r22
 300 0068 7583      		std Z+5,r23
 301 006a 8683      		std Z+6,r24
 302 006c 9783      		std Z+7,r25
 303               	/* epilogue start */
 304               	.LSM40:
 305 006e 1F91      		pop r17
 306 0070 0F91      		pop r16
 307 0072 FF90      		pop r15
 308 0074 EF90      		pop r14
 309               	.LVL10:
 310 0076 DF90      		pop r13
 311 0078 CF90      		pop r12
 312 007a 0895      		ret
 313               	.LFE21:
 315               		.section	.text.isInPit,"ax",@progbits
 316               	.global	isInPit
 318               	isInPit:
 319               	.LFB25:
 320               	.LSM41:
 321               	.LVL11:
 322 0000 0F93      		push r16
 323 0002 1F93      		push r17
 324               	/* prologue: function */
 325               	/* frame size = 0 */
 326 0004 8C01      		movw r16,r24
 327               	.LSM42:
 328 0006 DC01      		movw r26,r24
 329 0008 6D91      		ld r22,X+
 330 000a 7D91      		ld r23,X+
 331 000c 8D91      		ld r24,X+
 332 000e 9C91      		ld r25,X
 333 0010 0E94 0000 		call __fixsfsi
 334               	.LVL12:
 335 0014 FB01      		movw r30,r22
 336               	.LVL13:
 337               	.LSM43:
 338 0016 D801      		movw r26,r16
 339 0018 1496      		adiw r26,4
 340 001a 4D91      		ld r20,X+
 341 001c 5D91      		ld r21,X+
 342 001e 6D91      		ld r22,X+
 343 0020 7C91      		ld r23,X
 344 0022 1797      		sbiw r26,4+3
 345               	.LSM44:
 346 0024 8091 0000 		lds r24,pitLeft
 347 0028 9091 0000 		lds r25,(pitLeft)+1
 348 002c 8E17      		cp r24,r30
 349 002e 9F07      		cpc r25,r31
 350 0030 04F4      		brge .L20
 351 0032 2091 0000 		lds r18,width
 352 0036 8091 0000 		lds r24,pitRight
 353 003a 9091 0000 		lds r25,(pitRight)+1
 354 003e 821B      		sub r24,r18
 355 0040 9109      		sbc r25,__zero_reg__
 356 0042 8E17      		cp r24,r30
 357 0044 9F07      		cpc r25,r31
 358 0046 04F0      		brlt .L20
 359               	.LSM45:
 360 0048 CB01      		movw r24,r22
 361 004a BA01      		movw r22,r20
 362 004c 0E94 0000 		call __fixsfsi
 363               	.LVL14:
 364               	.LSM46:
 365 0050 8091 0000 		lds r24,pitTop
 366 0054 9091 0000 		lds r25,(pitTop)+1
 367 0058 8617      		cp r24,r22
 368 005a 9707      		cpc r25,r23
 369               	.LVL15:
 370 005c 04F4      		brge .L20
 371 005e 30E0      		ldi r19,lo8(0)
 372 0060 2091 0000 		lds r18,height
 373 0064 8091 0000 		lds r24,pitBottom
 374 0068 9091 0000 		lds r25,(pitBottom)+1
 375 006c 821B      		sub r24,r18
 376 006e 9109      		sbc r25,__zero_reg__
 377 0070 8617      		cp r24,r22
 378 0072 9707      		cpc r25,r23
 379 0074 04F4      		brge .L21
 380 0076 31E0      		ldi r19,lo8(1)
 381               	.L21:
 382 0078 81E0      		ldi r24,lo8(1)
 383 007a 3827      		eor r19,r24
 384 007c 232F      		mov r18,r19
 385 007e 30E0      		ldi r19,lo8(0)
 386 0080 00C0      		rjmp .L22
 387               	.LVL16:
 388               	.L20:
 389 0082 20E0      		ldi r18,lo8(0)
 390 0084 30E0      		ldi r19,hi8(0)
 391               	.L22:
 392               	.LSM47:
 393 0086 C901      		movw r24,r18
 394               	/* epilogue start */
 395 0088 1F91      		pop r17
 396 008a 0F91      		pop r16
 397               	.LVL17:
 398 008c 0895      		ret
 399               	.LFE25:
 401               		.section	.text.heroForward,"ax",@progbits
 402               	.global	heroForward
 404               	heroForward:
 405               	.LFB17:
 406               	.LSM48:
 407 0000 6F92      		push r6
 408 0002 7F92      		push r7
 409 0004 8F92      		push r8
 410 0006 9F92      		push r9
 411 0008 AF92      		push r10
 412 000a BF92      		push r11
 413 000c CF92      		push r12
 414 000e DF92      		push r13
 415 0010 EF92      		push r14
 416 0012 FF92      		push r15
 417 0014 0F93      		push r16
 418 0016 1F93      		push r17
 419 0018 CF93      		push r28
 420 001a DF93      		push r29
 421               	/* prologue: function */
 422               	/* frame size = 0 */
 423               	.LSM49:
 424 001c 0091 0000 		lds r16,my_pointer
 425 0020 1091 0000 		lds r17,(my_pointer)+1
 426 0024 C801      		movw r24,r16
 427 0026 0E94 0000 		call isInPit
 428 002a 892B      		or r24,r25
 429 002c 01F0      		breq .L25
 430               	.LSM50:
 431 002e 6090 0000 		lds r6,pitTop
 432 0032 7090 0000 		lds r7,(pitTop)+1
 433               	.LVL18:
 434 0036 82E0      		ldi r24,lo8(2)
 435 0038 90E0      		ldi r25,hi8(2)
 436 003a 680E      		add r6,r24
 437 003c 791E      		adc r7,r25
 438               	.LSM51:
 439 003e A090 0000 		lds r10,pitBottom
 440 0042 B090 0000 		lds r11,(pitBottom)+1
 441               	.LVL19:
 442 0046 ECEF      		ldi r30,lo8(-4)
 443 0048 FFEF      		ldi r31,hi8(-4)
 444 004a AE0E      		add r10,r30
 445 004c BF1E      		adc r11,r31
 446               	.LSM52:
 447 004e 8090 0000 		lds r8,pitLeft
 448 0052 9090 0000 		lds r9,(pitLeft)+1
 449               	.LVL20:
 450 0056 880E      		add r8,r24
 451 0058 991E      		adc r9,r25
 452               	.LSM53:
 453 005a C090 0000 		lds r12,pitRight
 454 005e D090 0000 		lds r13,(pitRight)+1
 455               	.LVL21:
 456 0062 CE0E      		add r12,r30
 457 0064 DF1E      		adc r13,r31
 458 0066 00C0      		rjmp .L26
 459               	.LVL22:
 460               	.L25:
 461               	.LSM54:
 462 0068 A090 0000 		lds r10,screen_y
 463 006c B090 0000 		lds r11,(screen_y)+1
 464               	.LVL23:
 465 0070 0894      		sec
 466 0072 A108      		sbc r10,__zero_reg__
 467 0074 B108      		sbc r11,__zero_reg__
 468               	.LSM55:
 469 0076 C090 0000 		lds r12,screen_x
 470 007a D090 0000 		lds r13,(screen_x)+1
 471               	.LVL24:
 472 007e 0894      		sec
 473 0080 C108      		sbc r12,__zero_reg__
 474 0082 D108      		sbc r13,__zero_reg__
 475 0084 3AE0      		ldi r19,lo8(10)
 476 0086 632E      		mov r6,r19
 477 0088 712C      		mov r7,__zero_reg__
 478               	.LVL25:
 479 008a 22E0      		ldi r18,lo8(2)
 480 008c 822E      		mov r8,r18
 481 008e 912C      		mov r9,__zero_reg__
 482               	.LVL26:
 483               	.L26:
 484               	.LSM56:
 485 0090 8091 0000 		lds r24,Direction
 486 0094 9091 0000 		lds r25,(Direction)+1
 487 0098 892B      		or r24,r25
 488 009a 01F0      		breq .L27
 489 009c 91E0      		ldi r25,lo8(1)
 490 009e E92E      		mov r14,r25
 491 00a0 F12C      		mov r15,__zero_reg__
 492               	.LVL27:
 493 00a2 00C0      		rjmp .L57
 494               	.LVL28:
 495               	.L27:
 496               	.LSM57:
 497 00a4 C091 0000 		lds r28,sword
 498 00a8 D091 0000 		lds r29,(sword)+1
 499 00ac 80E0      		ldi r24,lo8(bitSwordDown)
 500 00ae 90E0      		ldi r25,hi8(bitSwordDown)
 501 00b0 9C87      		std Y+12,r25
 502 00b2 8B87      		std Y+11,r24
 503               	.LSM58:
 504 00b4 8091 0000 		lds r24,gotSword
 505 00b8 9091 0000 		lds r25,(gotSword)+1
 506 00bc 892B      		or r24,r25
 507 00be 01F0      		breq .L29
 508               	.LSM59:
 509 00c0 F801      		movw r30,r16
 510 00c2 8081      		ld r24,Z
 511 00c4 9181      		ldd r25,Z+1
 512 00c6 A281      		ldd r26,Z+2
 513 00c8 B381      		ldd r27,Z+3
 514 00ca 8883      		st Y,r24
 515 00cc 9983      		std Y+1,r25
 516 00ce AA83      		std Y+2,r26
 517 00d0 BB83      		std Y+3,r27
 518               	.LSM60:
 519 00d2 6481      		ldd r22,Z+4
 520 00d4 7581      		ldd r23,Z+5
 521 00d6 8681      		ldd r24,Z+6
 522 00d8 9781      		ldd r25,Z+7
 523 00da 20E0      		ldi r18,lo8(0x40800000)
 524 00dc 30E0      		ldi r19,hi8(0x40800000)
 525 00de 40E8      		ldi r20,hlo8(0x40800000)
 526 00e0 50E4      		ldi r21,hhi8(0x40800000)
 527 00e2 0E94 0000 		call __addsf3
 528 00e6 6C83      		std Y+4,r22
 529 00e8 7D83      		std Y+5,r23
 530 00ea 8E83      		std Y+6,r24
 531 00ec 9F83      		std Y+7,r25
 532               	.L29:
 533               	.LSM61:
 534 00ee B501      		movw r22,r10
 535 00f0 8827      		clr r24
 536 00f2 77FD      		sbrc r23,7
 537 00f4 8095      		com r24
 538 00f6 982F      		mov r25,r24
 539               	.LVL29:
 540 00f8 0E94 0000 		call __floatsisf
 541               	.LVL30:
 542 00fc 9B01      		movw r18,r22
 543 00fe AC01      		movw r20,r24
 544 0100 F801      		movw r30,r16
 545 0102 6481      		ldd r22,Z+4
 546 0104 7581      		ldd r23,Z+5
 547 0106 8681      		ldd r24,Z+6
 548 0108 9781      		ldd r25,Z+7
 549 010a 0E94 0000 		call __gtsf2
 550 010e 1816      		cp __zero_reg__,r24
 551 0110 04F4      		brge .L53
 552 0112 EE24      		clr r14
 553 0114 FF24      		clr r15
 554               	.LVL31:
 555               	.L57:
 556 0116 C0E0      		ldi r28,lo8(0)
 557 0118 D0E0      		ldi r29,hi8(0)
 558               	.LVL32:
 559 011a 00C0      		rjmp .L28
 560               	.LVL33:
 561               	.L53:
 562 011c EE24      		clr r14
 563 011e FF24      		clr r15
 564               	.LVL34:
 565 0120 C1E0      		ldi r28,lo8(1)
 566 0122 D0E0      		ldi r29,hi8(1)
 567               	.LVL35:
 568               	.L28:
 569               	.LSM62:
 570 0124 8091 0000 		lds r24,Direction
 571 0128 9091 0000 		lds r25,(Direction)+1
 572 012c 0197      		sbiw r24,1
 573 012e 01F0      		breq .+2
 574 0130 00C0      		rjmp .L32
 575               	.LSM63:
 576 0132 C091 0000 		lds r28,sword
 577 0136 D091 0000 		lds r29,(sword)+1
 578               	.LVL36:
 579 013a 80E0      		ldi r24,lo8(bitSwordRight)
 580 013c 90E0      		ldi r25,hi8(bitSwordRight)
 581 013e 9C87      		std Y+12,r25
 582 0140 8B87      		std Y+11,r24
 583               	.LSM64:
 584 0142 8091 0000 		lds r24,gotSword
 585 0146 9091 0000 		lds r25,(gotSword)+1
 586 014a 892B      		or r24,r25
 587 014c 01F0      		breq .L33
 588               	.LSM65:
 589 014e F801      		movw r30,r16
 590 0150 6081      		ld r22,Z
 591 0152 7181      		ldd r23,Z+1
 592 0154 8281      		ldd r24,Z+2
 593 0156 9381      		ldd r25,Z+3
 594 0158 20E0      		ldi r18,lo8(0x40800000)
 595 015a 30E0      		ldi r19,hi8(0x40800000)
 596 015c 40E8      		ldi r20,hlo8(0x40800000)
 597 015e 50E4      		ldi r21,hhi8(0x40800000)
 598 0160 0E94 0000 		call __addsf3
 599 0164 6883      		st Y,r22
 600 0166 7983      		std Y+1,r23
 601 0168 8A83      		std Y+2,r24
 602 016a 9B83      		std Y+3,r25
 603               	.LSM66:
 604 016c F801      		movw r30,r16
 605 016e 8481      		ldd r24,Z+4
 606 0170 9581      		ldd r25,Z+5
 607 0172 A681      		ldd r26,Z+6
 608 0174 B781      		ldd r27,Z+7
 609 0176 8C83      		std Y+4,r24
 610 0178 9D83      		std Y+5,r25
 611 017a AE83      		std Y+6,r26
 612 017c BF83      		std Y+7,r27
 613               	.L33:
 614               	.LSM67:
 615 017e B601      		movw r22,r12
 616 0180 8827      		clr r24
 617 0182 77FD      		sbrc r23,7
 618 0184 8095      		com r24
 619 0186 982F      		mov r25,r24
 620               	.LVL37:
 621 0188 0E94 0000 		call __floatsisf
 622               	.LVL38:
 623 018c 9B01      		movw r18,r22
 624 018e AC01      		movw r20,r24
 625 0190 F801      		movw r30,r16
 626 0192 6081      		ld r22,Z
 627 0194 7181      		ldd r23,Z+1
 628 0196 8281      		ldd r24,Z+2
 629 0198 9381      		ldd r25,Z+3
 630 019a 0E94 0000 		call __gtsf2
 631 019e 1816      		cp __zero_reg__,r24
 632 01a0 04F4      		brge .L54
 633 01a2 EE24      		clr r14
 634 01a4 FF24      		clr r15
 635 01a6 00C0      		rjmp .L58
 636               	.L54:
 637 01a8 81E0      		ldi r24,lo8(1)
 638 01aa E82E      		mov r14,r24
 639 01ac F12C      		mov r15,__zero_reg__
 640               	.L58:
 641 01ae C0E0      		ldi r28,lo8(0)
 642 01b0 D0E0      		ldi r29,hi8(0)
 643               	.LVL39:
 644               	.L32:
 645               	.LSM68:
 646 01b2 8091 0000 		lds r24,Direction
 647 01b6 9091 0000 		lds r25,(Direction)+1
 648 01ba 0297      		sbiw r24,2
 649 01bc 01F0      		breq .+2
 650 01be 00C0      		rjmp .L36
 651               	.LSM69:
 652 01c0 C091 0000 		lds r28,sword
 653 01c4 D091 0000 		lds r29,(sword)+1
 654               	.LVL40:
 655 01c8 80E0      		ldi r24,lo8(bitSwordUp)
 656 01ca 90E0      		ldi r25,hi8(bitSwordUp)
 657 01cc 9C87      		std Y+12,r25
 658 01ce 8B87      		std Y+11,r24
 659               	.LSM70:
 660 01d0 8091 0000 		lds r24,gotSword
 661 01d4 9091 0000 		lds r25,(gotSword)+1
 662 01d8 892B      		or r24,r25
 663 01da 01F0      		breq .L37
 664               	.LSM71:
 665 01dc F801      		movw r30,r16
 666 01de 8081      		ld r24,Z
 667 01e0 9181      		ldd r25,Z+1
 668 01e2 A281      		ldd r26,Z+2
 669 01e4 B381      		ldd r27,Z+3
 670 01e6 8883      		st Y,r24
 671 01e8 9983      		std Y+1,r25
 672 01ea AA83      		std Y+2,r26
 673 01ec BB83      		std Y+3,r27
 674               	.LSM72:
 675 01ee 6481      		ldd r22,Z+4
 676 01f0 7581      		ldd r23,Z+5
 677 01f2 8681      		ldd r24,Z+6
 678 01f4 9781      		ldd r25,Z+7
 679 01f6 20E0      		ldi r18,lo8(0x40800000)
 680 01f8 30E0      		ldi r19,hi8(0x40800000)
 681 01fa 40E8      		ldi r20,hlo8(0x40800000)
 682 01fc 50E4      		ldi r21,hhi8(0x40800000)
 683 01fe 0E94 0000 		call __subsf3
 684 0202 6C83      		std Y+4,r22
 685 0204 7D83      		std Y+5,r23
 686 0206 8E83      		std Y+6,r24
 687 0208 9F83      		std Y+7,r25
 688               	.L37:
 689               	.LSM73:
 690 020a B301      		movw r22,r6
 691 020c 8827      		clr r24
 692 020e 77FD      		sbrc r23,7
 693 0210 8095      		com r24
 694 0212 982F      		mov r25,r24
 695               	.LVL41:
 696 0214 0E94 0000 		call __floatsisf
 697               	.LVL42:
 698 0218 9B01      		movw r18,r22
 699 021a AC01      		movw r20,r24
 700 021c F801      		movw r30,r16
 701 021e 6481      		ldd r22,Z+4
 702 0220 7581      		ldd r23,Z+5
 703 0222 8681      		ldd r24,Z+6
 704 0224 9781      		ldd r25,Z+7
 705 0226 0E94 0000 		call __ltsf2
 706 022a 8823      		tst r24
 707 022c 04F4      		brge .L55
 708 022e EE24      		clr r14
 709 0230 FF24      		clr r15
 710 0232 C0E0      		ldi r28,lo8(0)
 711 0234 D0E0      		ldi r29,hi8(0)
 712               	.LVL43:
 713 0236 00C0      		rjmp .L36
 714               	.LVL44:
 715               	.L55:
 716 0238 EE24      		clr r14
 717 023a FF24      		clr r15
 718 023c CFEF      		ldi r28,lo8(-1)
 719 023e DFEF      		ldi r29,hi8(-1)
 720               	.LVL45:
 721               	.L36:
 722               	.LSM74:
 723 0240 8091 0000 		lds r24,Direction
 724 0244 9091 0000 		lds r25,(Direction)+1
 725 0248 0397      		sbiw r24,3
 726 024a 01F0      		breq .+2
 727 024c 00C0      		rjmp .L40
 728               	.LSM75:
 729 024e C091 0000 		lds r28,sword
 730 0252 D091 0000 		lds r29,(sword)+1
 731               	.LVL46:
 732 0256 80E0      		ldi r24,lo8(bitSwordLeft)
 733 0258 90E0      		ldi r25,hi8(bitSwordLeft)
 734 025a 9C87      		std Y+12,r25
 735 025c 8B87      		std Y+11,r24
 736               	.LSM76:
 737 025e 8091 0000 		lds r24,gotSword
 738 0262 9091 0000 		lds r25,(gotSword)+1
 739 0266 892B      		or r24,r25
 740 0268 01F0      		breq .L41
 741               	.LSM77:
 742 026a F801      		movw r30,r16
 743 026c 6081      		ld r22,Z
 744 026e 7181      		ldd r23,Z+1
 745 0270 8281      		ldd r24,Z+2
 746 0272 9381      		ldd r25,Z+3
 747 0274 20E0      		ldi r18,lo8(0x40800000)
 748 0276 30E0      		ldi r19,hi8(0x40800000)
 749 0278 40E8      		ldi r20,hlo8(0x40800000)
 750 027a 50E4      		ldi r21,hhi8(0x40800000)
 751 027c 0E94 0000 		call __subsf3
 752 0280 6883      		st Y,r22
 753 0282 7983      		std Y+1,r23
 754 0284 8A83      		std Y+2,r24
 755 0286 9B83      		std Y+3,r25
 756               	.LSM78:
 757 0288 F801      		movw r30,r16
 758 028a 8481      		ldd r24,Z+4
 759 028c 9581      		ldd r25,Z+5
 760 028e A681      		ldd r26,Z+6
 761 0290 B781      		ldd r27,Z+7
 762 0292 8C83      		std Y+4,r24
 763 0294 9D83      		std Y+5,r25
 764 0296 AE83      		std Y+6,r26
 765 0298 BF83      		std Y+7,r27
 766               	.L41:
 767               	.LSM79:
 768 029a B401      		movw r22,r8
 769 029c 8827      		clr r24
 770 029e 77FD      		sbrc r23,7
 771 02a0 8095      		com r24
 772 02a2 982F      		mov r25,r24
 773               	.LVL47:
 774 02a4 0E94 0000 		call __floatsisf
 775               	.LVL48:
 776 02a8 9B01      		movw r18,r22
 777 02aa AC01      		movw r20,r24
 778 02ac F801      		movw r30,r16
 779 02ae 6081      		ld r22,Z
 780 02b0 7181      		ldd r23,Z+1
 781 02b2 8281      		ldd r24,Z+2
 782 02b4 9381      		ldd r25,Z+3
 783 02b6 0E94 0000 		call __ltsf2
 784 02ba 8823      		tst r24
 785 02bc 04F4      		brge .L56
 786 02be EE24      		clr r14
 787 02c0 FF24      		clr r15
 788 02c2 00C0      		rjmp .L59
 789               	.L56:
 790 02c4 EE24      		clr r14
 791 02c6 EA94      		dec r14
 792 02c8 FE2C      		mov r15,r14
 793               	.L59:
 794 02ca C0E0      		ldi r28,lo8(0)
 795 02cc D0E0      		ldi r29,hi8(0)
 796               	.LVL49:
 797               	.L40:
 798               	.LSM80:
 799 02ce C801      		movw r24,r16
 800 02d0 0E94 0000 		call isInPit
 801 02d4 892B      		or r24,r25
 802 02d6 01F4      		brne .+2
 803 02d8 00C0      		rjmp .L44
 804               	.LBB80:
 805               	.LSM81:
 806 02da F801      		movw r30,r16
 807 02dc 6081      		ld r22,Z
 808 02de 7181      		ldd r23,Z+1
 809 02e0 8281      		ldd r24,Z+2
 810 02e2 9381      		ldd r25,Z+3
 811 02e4 0E94 0000 		call __fixsfsi
 812               	.LSM82:
 813 02e8 F801      		movw r30,r16
 814 02ea 2481      		ldd r18,Z+4
 815 02ec 3581      		ldd r19,Z+5
 816 02ee 4681      		ldd r20,Z+6
 817 02f0 5781      		ldd r21,Z+7
 818               	.LSM83:
 819 02f2 8091 0000 		lds r24,LEFT
 820 02f6 9091 0000 		lds r25,(LEFT)+1
 821 02fa 892B      		or r24,r25
 822 02fc 01F0      		breq .L45
 823 02fe 8091 0000 		lds r24,RIGHT
 824 0302 9091 0000 		lds r25,(RIGHT)+1
 825 0306 892B      		or r24,r25
 826 0308 01F0      		breq .L45
 827 030a C616      		cp r12,r22
 828 030c D706      		cpc r13,r23
 829               	.LVL50:
 830 030e 04F4      		brge .L45
 831               	.LSM84:
 832 0310 84E0      		ldi r24,lo8(4)
 833 0312 90E0      		ldi r25,hi8(4)
 834 0314 C80E      		add r12,r24
 835 0316 D91E      		adc r13,r25
 836 0318 B601      		movw r22,r12
 837 031a 8827      		clr r24
 838 031c 77FD      		sbrc r23,7
 839 031e 8095      		com r24
 840 0320 982F      		mov r25,r24
 841               	.LVL51:
 842 0322 00C0      		rjmp .L60
 843               	.LVL52:
 844               	.L45:
 845               	.LSM85:
 846 0324 8091 0000 		lds r24,LEFT
 847 0328 9091 0000 		lds r25,(LEFT)+1
 848 032c 892B      		or r24,r25
 849 032e 01F0      		breq .L46
 850 0330 8091 0000 		lds r24,RIGHT
 851 0334 9091 0000 		lds r25,(RIGHT)+1
 852 0338 892B      		or r24,r25
 853 033a 01F0      		breq .L46
 854 033c 6815      		cp r22,r8
 855 033e 7905      		cpc r23,r9
 856 0340 04F4      		brge .L46
 857               	.LSM86:
 858 0342 8CEF      		ldi r24,lo8(-4)
 859 0344 9FEF      		ldi r25,hi8(-4)
 860 0346 880E      		add r8,r24
 861 0348 991E      		adc r9,r25
 862 034a B401      		movw r22,r8
 863 034c 8827      		clr r24
 864 034e 77FD      		sbrc r23,7
 865 0350 8095      		com r24
 866 0352 982F      		mov r25,r24
 867               	.LVL53:
 868               	.L60:
 869 0354 0E94 0000 		call __floatsisf
 870 0358 F801      		movw r30,r16
 871 035a 6083      		st Z,r22
 872 035c 7183      		std Z+1,r23
 873 035e 8283      		std Z+2,r24
 874 0360 9383      		std Z+3,r25
 875 0362 00C0      		rjmp .L44
 876               	.LVL54:
 877               	.L46:
 878               	.LSM87:
 879 0364 CA01      		movw r24,r20
 880 0366 B901      		movw r22,r18
 881               	.LVL55:
 882 0368 0E94 0000 		call __fixsfsi
 883               	.LSM88:
 884 036c 8091 0000 		lds r24,LEFT
 885 0370 9091 0000 		lds r25,(LEFT)+1
 886 0374 892B      		or r24,r25
 887 0376 01F0      		breq .L47
 888 0378 8091 0000 		lds r24,RIGHT
 889 037c 9091 0000 		lds r25,(RIGHT)+1
 890 0380 892B      		or r24,r25
 891 0382 01F0      		breq .L47
 892 0384 6615      		cp r22,r6
 893 0386 7705      		cpc r23,r7
 894               	.LVL56:
 895 0388 04F4      		brge .L47
 896               	.LSM89:
 897 038a 8CEF      		ldi r24,lo8(-4)
 898 038c 9FEF      		ldi r25,hi8(-4)
 899 038e 680E      		add r6,r24
 900 0390 791E      		adc r7,r25
 901 0392 B301      		movw r22,r6
 902 0394 8827      		clr r24
 903 0396 77FD      		sbrc r23,7
 904 0398 8095      		com r24
 905 039a 982F      		mov r25,r24
 906               	.LVL57:
 907 039c 00C0      		rjmp .L61
 908               	.LVL58:
 909               	.L47:
 910               	.LSM90:
 911 039e 8091 0000 		lds r24,LEFT
 912 03a2 9091 0000 		lds r25,(LEFT)+1
 913 03a6 892B      		or r24,r25
 914 03a8 01F0      		breq .L44
 915 03aa 8091 0000 		lds r24,RIGHT
 916 03ae 9091 0000 		lds r25,(RIGHT)+1
 917 03b2 892B      		or r24,r25
 918 03b4 01F0      		breq .L44
 919 03b6 A616      		cp r10,r22
 920 03b8 B706      		cpc r11,r23
 921 03ba 04F4      		brge .L44
 922               	.LSM91:
 923 03bc 84E0      		ldi r24,lo8(4)
 924 03be 90E0      		ldi r25,hi8(4)
 925 03c0 A80E      		add r10,r24
 926 03c2 B91E      		adc r11,r25
 927 03c4 B501      		movw r22,r10
 928 03c6 8827      		clr r24
 929 03c8 77FD      		sbrc r23,7
 930 03ca 8095      		com r24
 931 03cc 982F      		mov r25,r24
 932               	.LVL59:
 933               	.L61:
 934 03ce 0E94 0000 		call __floatsisf
 935 03d2 F801      		movw r30,r16
 936 03d4 6483      		std Z+4,r22
 937 03d6 7583      		std Z+5,r23
 938 03d8 8683      		std Z+6,r24
 939 03da 9783      		std Z+7,r25
 940               	.LVL60:
 941               	.L44:
 942               	.LBE80:
 943               	.LSM92:
 944 03dc B701      		movw r22,r14
 945 03de 8827      		clr r24
 946 03e0 77FD      		sbrc r23,7
 947 03e2 8095      		com r24
 948 03e4 982F      		mov r25,r24
 949               	.LVL61:
 950 03e6 0E94 0000 		call __floatsisf
 951               	.LVL62:
 952 03ea 9B01      		movw r18,r22
 953 03ec AC01      		movw r20,r24
 954 03ee F801      		movw r30,r16
 955 03f0 6081      		ld r22,Z
 956 03f2 7181      		ldd r23,Z+1
 957 03f4 8281      		ldd r24,Z+2
 958 03f6 9381      		ldd r25,Z+3
 959 03f8 0E94 0000 		call __addsf3
 960 03fc F801      		movw r30,r16
 961 03fe 6083      		st Z,r22
 962 0400 7183      		std Z+1,r23
 963 0402 8283      		std Z+2,r24
 964 0404 9383      		std Z+3,r25
 965               	.LSM93:
 966 0406 BE01      		movw r22,r28
 967 0408 8827      		clr r24
 968 040a 77FD      		sbrc r23,7
 969 040c 8095      		com r24
 970 040e 982F      		mov r25,r24
 971               	.LVL63:
 972 0410 0E94 0000 		call __floatsisf
 973               	.LVL64:
 974 0414 9B01      		movw r18,r22
 975 0416 AC01      		movw r20,r24
 976 0418 F801      		movw r30,r16
 977 041a 6481      		ldd r22,Z+4
 978 041c 7581      		ldd r23,Z+5
 979 041e 8681      		ldd r24,Z+6
 980 0420 9781      		ldd r25,Z+7
 981 0422 0E94 0000 		call __addsf3
 982 0426 F801      		movw r30,r16
 983 0428 6483      		std Z+4,r22
 984 042a 7583      		std Z+5,r23
 985 042c 8683      		std Z+6,r24
 986 042e 9783      		std Z+7,r25
 987               	/* epilogue start */
 988               	.LSM94:
 989 0430 DF91      		pop r29
 990 0432 CF91      		pop r28
 991 0434 1F91      		pop r17
 992 0436 0F91      		pop r16
 993 0438 FF90      		pop r15
 994 043a EF90      		pop r14
 995 043c DF90      		pop r13
 996 043e CF90      		pop r12
 997               	.LVL65:
 998 0440 BF90      		pop r11
 999 0442 AF90      		pop r10
 1000               	.LVL66:
 1001 0444 9F90      		pop r9
 1002 0446 8F90      		pop r8
 1003               	.LVL67:
 1004 0448 7F90      		pop r7
 1005 044a 6F90      		pop r6
 1006               	.LVL68:
 1007 044c 0895      		ret
 1008               	.LFE17:
 1010               		.section	.text.drawPit,"ax",@progbits
 1011               	.global	drawPit
 1013               	drawPit:
 1014               	.LFB24:
 1015               	.LSM95:
 1016               	/* prologue: function */
 1017               	/* frame size = 0 */
 1018               	.LSM96:
 1019 0000 2091 0000 		lds r18,pitTop
 1020 0004 8091 0000 		lds r24,pitLeft
 1021 0008 622F      		mov r22,r18
 1022 000a 4091 0000 		lds r20,pitRight
 1023 000e 0E94 0000 		call draw_line
 1024               	.LSM97:
 1025 0012 2091 0000 		lds r18,pitBottom
 1026 0016 8091 0000 		lds r24,pitLeft
 1027 001a 622F      		mov r22,r18
 1028 001c 4091 0000 		lds r20,pitRight
 1029 0020 0E94 0000 		call draw_line
 1030               	.LSM98:
 1031 0024 4091 0000 		lds r20,pitLeft
 1032 0028 842F      		mov r24,r20
 1033 002a 6091 0000 		lds r22,pitTop
 1034 002e 2091 0000 		lds r18,pitBottom
 1035 0032 0E94 0000 		call draw_line
 1036               	.LSM99:
 1037 0036 4091 0000 		lds r20,pitRight
 1038 003a 842F      		mov r24,r20
 1039 003c 6091 0000 		lds r22,pitTop
 1040 0040 2091 0000 		lds r18,pitBottom
 1041 0044 0E94 0000 		call draw_line
 1042               	/* epilogue start */
 1043               	.LSM100:
 1044 0048 0895      		ret
 1045               	.LFE24:
 1047               		.data
 1048               	.LC0:
 1049 0000 4C3A 2000 		.string	"L: "
 1050               	.LC1:
 1051 0004 533A 2000 		.string	"S: "
 1052               		.section	.text.drawScreen,"ax",@progbits
 1053               	.global	drawScreen
 1055               	drawScreen:
 1056               	.LFB19:
 1057               	.LSM101:
 1058 0000 0F93      		push r16
 1059 0002 1F93      		push r17
 1060               	/* prologue: function */
 1061               	/* frame size = 0 */
 1062               	.LSM102:
 1063 0004 80E0      		ldi r24,lo8(0)
 1064 0006 68E0      		ldi r22,lo8(8)
 1065 0008 4091 0000 		lds r20,screen_x_Full
 1066 000c 28E0      		ldi r18,lo8(8)
 1067 000e 0E94 0000 		call draw_line
 1068               	.LSM103:
 1069 0012 80E0      		ldi r24,lo8(0)
 1070 0014 68E0      		ldi r22,lo8(8)
 1071 0016 40E0      		ldi r20,lo8(0)
 1072 0018 2091 0000 		lds r18,screen_y_Full
 1073 001c 0E94 0000 		call draw_line
 1074               	.LSM104:
 1075 0020 4091 0000 		lds r20,screen_x_Full
 1076 0024 842F      		mov r24,r20
 1077 0026 68E0      		ldi r22,lo8(8)
 1078 0028 2091 0000 		lds r18,screen_y_Full
 1079 002c 0E94 0000 		call draw_line
 1080               	.LSM105:
 1081 0030 2091 0000 		lds r18,screen_y_Full
 1082 0034 80E0      		ldi r24,lo8(0)
 1083 0036 622F      		mov r22,r18
 1084 0038 4091 0000 		lds r20,screen_x_Full
 1085 003c 0E94 0000 		call draw_line
 1086               	.LSM106:
 1087 0040 80E0      		ldi r24,lo8(.LC0)
 1088 0042 90E0      		ldi r25,hi8(.LC0)
 1089 0044 60E0      		ldi r22,lo8(0)
 1090 0046 40E0      		ldi r20,lo8(0)
 1091 0048 0E94 0000 		call draw_string
 1092               	.LSM107:
 1093 004c 8091 0000 		lds r24,Lives
 1094 0050 805D      		subi r24,lo8(-(48))
 1095 0052 6BE0      		ldi r22,lo8(11)
 1096 0054 40E0      		ldi r20,lo8(0)
 1097 0056 0E94 0000 		call draw_character
 1098               	.LSM108:
 1099 005a 80E0      		ldi r24,lo8(.LC1)
 1100 005c 90E0      		ldi r25,hi8(.LC1)
 1101 005e 65E1      		ldi r22,lo8(21)
 1102 0060 40E0      		ldi r20,lo8(0)
 1103 0062 0E94 0000 		call draw_string
 1104               	.LSM109:
 1105 0066 0091 0000 		lds r16,Score
 1106 006a 1091 0000 		lds r17,(Score)+1
 1107               	.LSM110:
 1108 006e C801      		movw r24,r16
 1109 0070 6AE0      		ldi r22,lo8(10)
 1110 0072 70E0      		ldi r23,hi8(10)
 1111 0074 0E94 0000 		call __divmodhi4
 1112 0078 805D      		subi r24,lo8(-(48))
 1113 007a 65E2      		ldi r22,lo8(37)
 1114 007c 40E0      		ldi r20,lo8(0)
 1115 007e 0E94 0000 		call draw_character
 1116               	.LSM111:
 1117 0082 C801      		movw r24,r16
 1118 0084 6AE0      		ldi r22,lo8(10)
 1119 0086 70E0      		ldi r23,hi8(10)
 1120 0088 0E94 0000 		call __divmodhi4
 1121 008c 862F      		mov r24,r22
 1122 008e 805D      		subi r24,lo8(-(48))
 1123 0090 6FE1      		ldi r22,lo8(31)
 1124 0092 40E0      		ldi r20,lo8(0)
 1125 0094 0E94 0000 		call draw_character
 1126               	.LSM112:
 1127 0098 8091 0000 		lds r24,Direction
 1128 009c 9091 0000 		lds r25,(Direction)+1
 1129 00a0 805D      		subi r24,lo8(-(48))
 1130 00a2 6EE4      		ldi r22,lo8(78)
 1131 00a4 40E0      		ldi r20,lo8(0)
 1132 00a6 0E94 0000 		call draw_character
 1133               	.LSM113:
 1134 00aa 8091 0000 		lds r24,my_pointer
 1135 00ae 9091 0000 		lds r25,(my_pointer)+1
 1136 00b2 0E94 0000 		call isInPit
 1137 00b6 805D      		subi r24,lo8(-(48))
 1138 00b8 66E4      		ldi r22,lo8(70)
 1139 00ba 40E0      		ldi r20,lo8(0)
 1140 00bc 0E94 0000 		call draw_character
 1141               	/* epilogue start */
 1142               	.LSM114:
 1143 00c0 1F91      		pop r17
 1144 00c2 0F91      		pop r16
 1145 00c4 0895      		ret
 1146               	.LFE19:
 1148               		.data
 1149               	.LC2:
 1150 0008 4761 6D65 		.string	"Game Start In: "
 1150      2053 7461 
 1150      7274 2049 
 1150      6E3A 2000 
 1151               		.section	.text.CountDown,"ax",@progbits
 1152               	.global	CountDown
 1154               	CountDown:
 1155               	.LFB9:
 1156               	.LSM115:
 1157 0000 1F93      		push r17
 1158 0002 CF93      		push r28
 1159 0004 DF93      		push r29
 1160               	/* prologue: function */
 1161               	/* frame size = 0 */
 1162               	.LSM116:
 1163 0006 13E3      		ldi r17,lo8(51)
 1164               	.LBB81:
 1165               	.LBB82:
 1166               	.LBB83:
 1167               	.LBB84:
 1168               	.LBB85:
 1169               	.LSM117:
 1170 0008 C0E9      		ldi r28,lo8(400)
 1171 000a D1E0      		ldi r29,hi8(400)
 1172               	.LVL69:
 1173               	.L68:
 1174               	.LBE85:
 1175               	.LBE84:
 1176               	.LBE83:
 1177               	.LBE82:
 1178               	.LSM118:
 1179 000c 0E94 0000 		call clear
 1180               	.LVL70:
 1181               	.LSM119:
 1182 0010 80E0      		ldi r24,lo8(.LC2)
 1183 0012 90E0      		ldi r25,hi8(.LC2)
 1184 0014 62E0      		ldi r22,lo8(2)
 1185 0016 46E1      		ldi r20,lo8(22)
 1186 0018 0E94 0000 		call draw_string
 1187               	.LSM120:
 1188 001c 812F      		mov r24,r17
 1189 001e 6BE4      		ldi r22,lo8(75)
 1190 0020 46E1      		ldi r20,lo8(22)
 1191 0022 0E94 0000 		call draw_character
 1192               	.LSM121:
 1193 0026 0E94 0000 		call refresh
 1194 002a 80E1      		ldi r24,lo8(10000)
 1195 002c 97E2      		ldi r25,hi8(10000)
 1196               	.LVL71:
 1197               	.L67:
 1198               	.LBB89:
 1199               	.LBB88:
 1200               	.LBB87:
 1201               	.LBB86:
 1202               	.LSM122:
 1203 002e FE01      		movw r30,r28
 1204               	.LVL72:
 1205               	/* #APP */
 1206               	 ;  105 "c:/winavr-20100110/lib/gcc/../../avr/include/util/delay_basic.h" 1
 1207 0030 3197      		1: sbiw r30,1
 1208 0032 01F4      		brne 1b
 1209               	 ;  0 "" 2
 1210               	/* #NOAPP */
 1211               	.LBE86:
 1212               	.LBE87:
 1213               	.LSM123:
 1214 0034 0197      		sbiw r24,1
 1215               	.LSM124:
 1216 0036 01F4      		brne .L67
 1217 0038 1150      		subi r17,lo8(-(-1))
 1218               	.LBE88:
 1219               	.LBE89:
 1220               	.LSM125:
 1221 003a 1033      		cpi r17,lo8(48)
 1222 003c 01F4      		brne .L68
 1223               	/* epilogue start */
 1224               	.LBE81:
 1225               	.LSM126:
 1226 003e DF91      		pop r29
 1227 0040 CF91      		pop r28
 1228 0042 1F91      		pop r17
 1229 0044 0895      		ret
 1230               	.LFE9:
 1232               		.section	.text.seedWithButtonPress,"ax",@progbits
 1233               	.global	seedWithButtonPress
 1235               	seedWithButtonPress:
 1236               	.LFB12:
 1237               	.LSM127:
 1238               	/* prologue: function */
 1239               	/* frame size = 0 */
 1240               	.LSM128:
 1241 0000 5E9A      		sbi 43-32,6
 1242               	.LSM129:
 1243 0002 84B1      		in r24,36-32
 1244 0004 8C60      		ori r24,lo8(12)
 1245 0006 84B9      		out 36-32,r24
 1246 0008 20E0      		ldi r18,lo8(0)
 1247 000a 30E0      		ldi r19,hi8(0)
 1248               	.LVL73:
 1249 000c 00C0      		rjmp .L73
 1250               	.L75:
 1251               	.LSM130:
 1252 000e 2F5F      		subi r18,lo8(-(1))
 1253 0010 3F4F      		sbci r19,hi8(-(1))
 1254               	.L73:
 1255               	.LSM131:
 1256 0012 8091 0000 		lds r24,RIGHT
 1257 0016 9091 0000 		lds r25,(RIGHT)+1
 1258 001a 892B      		or r24,r25
 1259 001c 01F4      		brne .L74
 1260 001e 8091 0000 		lds r24,LEFT
 1261 0022 9091 0000 		lds r25,(LEFT)+1
 1262 0026 892B      		or r24,r25
 1263 0028 01F0      		breq .L75
 1264               	.L74:
 1265               	.LSM132:
 1266 002a C901      		movw r24,r18
 1267 002c 0E94 0000 		call srand
 1268               	.LVL74:
 1269               	.LSM133:
 1270 0030 1BB8      		out 43-32,__zero_reg__
 1271               	/* epilogue start */
 1272               	.LSM134:
 1273 0032 0895      		ret
 1274               	.LFE12:
 1276               		.section	.text.randInRange,"ax",@progbits
 1277               	.global	randInRange
 1279               	randInRange:
 1280               	.LFB11:
 1281               	.LSM135:
 1282               	.LVL75:
 1283 0000 EF92      		push r14
 1284 0002 FF92      		push r15
 1285 0004 0F93      		push r16
 1286 0006 1F93      		push r17
 1287               	/* prologue: function */
 1288               	/* frame size = 0 */
 1289 0008 8C01      		movw r16,r24
 1290 000a 7B01      		movw r14,r22
 1291               	.LSM136:
 1292 000c 0E94 0000 		call rand
 1293               	.LVL76:
 1294 0010 E01A      		sub r14,r16
 1295 0012 F10A      		sbc r15,r17
 1296 0014 0894      		sec
 1297 0016 E11C      		adc r14,__zero_reg__
 1298 0018 F11C      		adc r15,__zero_reg__
 1299 001a B701      		movw r22,r14
 1300 001c 0E94 0000 		call __divmodhi4
 1301 0020 9C01      		movw r18,r24
 1302 0022 200F      		add r18,r16
 1303 0024 311F      		adc r19,r17
 1304               	.LSM137:
 1305 0026 C901      		movw r24,r18
 1306               	/* epilogue start */
 1307 0028 1F91      		pop r17
 1308 002a 0F91      		pop r16
 1309               	.LVL77:
 1310 002c FF90      		pop r15
 1311 002e EF90      		pop r14
 1312               	.LVL78:
 1313 0030 0895      		ret
 1314               	.LFE11:
 1316               		.section	.text.setupGrenade,"ax",@progbits
 1317               	.global	setupGrenade
 1319               	setupGrenade:
 1320               	.LFB27:
 1321               	.LSM138:
 1322 0000 8F92      		push r8
 1323 0002 9F92      		push r9
 1324 0004 AF92      		push r10
 1325 0006 BF92      		push r11
 1326 0008 CF92      		push r12
 1327 000a DF92      		push r13
 1328 000c EF92      		push r14
 1329 000e FF92      		push r15
 1330 0010 0F93      		push r16
 1331 0012 1F93      		push r17
 1332               	/* prologue: function */
 1333               	/* frame size = 0 */
 1334               	.LSM139:
 1335 0014 6091 0000 		lds r22,screen_x
 1336 0018 7091 0000 		lds r23,(screen_x)+1
 1337 001c 82E0      		ldi r24,lo8(2)
 1338 001e 90E0      		ldi r25,hi8(2)
 1339 0020 0E94 0000 		call randInRange
 1340 0024 7C01      		movw r14,r24
 1341               	.LVL79:
 1342               	.LSM140:
 1343 0026 6091 0000 		lds r22,screen_y
 1344 002a 7091 0000 		lds r23,(screen_y)+1
 1345 002e 89E0      		ldi r24,lo8(9)
 1346 0030 90E0      		ldi r25,hi8(9)
 1347 0032 0E94 0000 		call randInRange
 1348 0036 5C01      		movw r10,r24
 1349               	.LVL80:
 1350               	.LSM141:
 1351 0038 8090 0000 		lds r8,grenade
 1352 003c 9090 0000 		lds r9,(grenade)+1
 1353 0040 0027      		clr r16
 1354 0042 F7FC      		sbrc r15,7
 1355 0044 0095      		com r16
 1356 0046 102F      		mov r17,r16
 1357               	.LVL81:
 1358 0048 C801      		movw r24,r16
 1359 004a B701      		movw r22,r14
 1360 004c 0E94 0000 		call __floatsisf
 1361 0050 F401      		movw r30,r8
 1362 0052 6083      		st Z,r22
 1363 0054 7183      		std Z+1,r23
 1364 0056 8283      		std Z+2,r24
 1365 0058 9383      		std Z+3,r25
 1366               	.LSM142:
 1367 005a CC24      		clr r12
 1368 005c B7FC      		sbrc r11,7
 1369 005e C094      		com r12
 1370 0060 DC2C      		mov r13,r12
 1371               	.LVL82:
 1372 0062 C601      		movw r24,r12
 1373 0064 B501      		movw r22,r10
 1374 0066 0E94 0000 		call __floatsisf
 1375 006a F401      		movw r30,r8
 1376 006c 6483      		std Z+4,r22
 1377 006e 7583      		std Z+5,r23
 1378 0070 8683      		std Z+6,r24
 1379 0072 9783      		std Z+7,r25
 1380               	/* epilogue start */
 1381               	.LSM143:
 1382 0074 1F91      		pop r17
 1383 0076 0F91      		pop r16
 1384 0078 FF90      		pop r15
 1385 007a EF90      		pop r14
 1386               	.LVL83:
 1387 007c DF90      		pop r13
 1388 007e CF90      		pop r12
 1389 0080 BF90      		pop r11
 1390 0082 AF90      		pop r10
 1391               	.LVL84:
 1392 0084 9F90      		pop r9
 1393 0086 8F90      		pop r8
 1394 0088 0895      		ret
 1395               	.LFE27:
 1397               		.section	.text.setupSword,"ax",@progbits
 1398               	.global	setupSword
 1400               	setupSword:
 1401               	.LFB26:
 1402               	.LSM144:
 1403 0000 8F92      		push r8
 1404 0002 9F92      		push r9
 1405 0004 AF92      		push r10
 1406 0006 BF92      		push r11
 1407 0008 CF92      		push r12
 1408 000a DF92      		push r13
 1409 000c EF92      		push r14
 1410 000e FF92      		push r15
 1411 0010 0F93      		push r16
 1412 0012 1F93      		push r17
 1413               	/* prologue: function */
 1414               	/* frame size = 0 */
 1415               	.LSM145:
 1416 0014 6091 0000 		lds r22,screen_x
 1417 0018 7091 0000 		lds r23,(screen_x)+1
 1418 001c 82E0      		ldi r24,lo8(2)
 1419 001e 90E0      		ldi r25,hi8(2)
 1420 0020 0E94 0000 		call randInRange
 1421 0024 7C01      		movw r14,r24
 1422               	.LVL85:
 1423               	.LSM146:
 1424 0026 6091 0000 		lds r22,screen_y
 1425 002a 7091 0000 		lds r23,(screen_y)+1
 1426 002e 89E0      		ldi r24,lo8(9)
 1427 0030 90E0      		ldi r25,hi8(9)
 1428 0032 0E94 0000 		call randInRange
 1429 0036 5C01      		movw r10,r24
 1430               	.LVL86:
 1431               	.LSM147:
 1432 0038 8090 0000 		lds r8,sword
 1433 003c 9090 0000 		lds r9,(sword)+1
 1434 0040 0027      		clr r16
 1435 0042 F7FC      		sbrc r15,7
 1436 0044 0095      		com r16
 1437 0046 102F      		mov r17,r16
 1438               	.LVL87:
 1439 0048 C801      		movw r24,r16
 1440 004a B701      		movw r22,r14
 1441 004c 0E94 0000 		call __floatsisf
 1442 0050 F401      		movw r30,r8
 1443 0052 6083      		st Z,r22
 1444 0054 7183      		std Z+1,r23
 1445 0056 8283      		std Z+2,r24
 1446 0058 9383      		std Z+3,r25
 1447               	.LSM148:
 1448 005a CC24      		clr r12
 1449 005c B7FC      		sbrc r11,7
 1450 005e C094      		com r12
 1451 0060 DC2C      		mov r13,r12
 1452               	.LVL88:
 1453 0062 C601      		movw r24,r12
 1454 0064 B501      		movw r22,r10
 1455 0066 0E94 0000 		call __floatsisf
 1456 006a F401      		movw r30,r8
 1457 006c 6483      		std Z+4,r22
 1458 006e 7583      		std Z+5,r23
 1459 0070 8683      		std Z+6,r24
 1460 0072 9783      		std Z+7,r25
 1461               	/* epilogue start */
 1462               	.LSM149:
 1463 0074 1F91      		pop r17
 1464 0076 0F91      		pop r16
 1465 0078 FF90      		pop r15
 1466 007a EF90      		pop r14
 1467               	.LVL89:
 1468 007c DF90      		pop r13
 1469 007e CF90      		pop r12
 1470 0080 BF90      		pop r11
 1471 0082 AF90      		pop r10
 1472               	.LVL90:
 1473 0084 9F90      		pop r9
 1474 0086 8F90      		pop r8
 1475 0088 0895      		ret
 1476               	.LFE26:
 1478               		.section	.text.setupPit,"ax",@progbits
 1479               	.global	setupPit
 1481               	setupPit:
 1482               	.LFB23:
 1483               	.LSM150:
 1484 0000 EF92      		push r14
 1485 0002 FF92      		push r15
 1486 0004 0F93      		push r16
 1487 0006 1F93      		push r17
 1488               	/* prologue: function */
 1489               	/* frame size = 0 */
 1490               	.LSM151:
 1491 0008 86E0      		ldi r24,lo8(6)
 1492 000a 90E0      		ldi r25,hi8(6)
 1493 000c 6CE0      		ldi r22,lo8(12)
 1494 000e 70E0      		ldi r23,hi8(12)
 1495 0010 0E94 0000 		call randInRange
 1496 0014 8C01      		movw r16,r24
 1497               	.LVL91:
 1498               	.LSM152:
 1499 0016 86E0      		ldi r24,lo8(6)
 1500 0018 90E0      		ldi r25,hi8(6)
 1501 001a 6CE0      		ldi r22,lo8(12)
 1502 001c 70E0      		ldi r23,hi8(12)
 1503 001e 0E94 0000 		call randInRange
 1504 0022 7C01      		movw r14,r24
 1505               	.LVL92:
 1506               	.LSM153:
 1507 0024 6091 0000 		lds r22,screen_x_Full
 1508 0028 7091 0000 		lds r23,(screen_x_Full)+1
 1509 002c 6451      		subi r22,lo8(-(-20))
 1510 002e 7040      		sbci r23,hi8(-(-20))
 1511 0030 84E1      		ldi r24,lo8(20)
 1512 0032 90E0      		ldi r25,hi8(20)
 1513 0034 0E94 0000 		call randInRange
 1514 0038 9093 0000 		sts (pitLeft)+1,r25
 1515 003c 8093 0000 		sts pitLeft,r24
 1516               	.LSM154:
 1517 0040 800F      		add r24,r16
 1518 0042 911F      		adc r25,r17
 1519 0044 9093 0000 		sts (pitRight)+1,r25
 1520 0048 8093 0000 		sts pitRight,r24
 1521               	.LSM155:
 1522 004c 6091 0000 		lds r22,screen_y_Full
 1523 0050 7091 0000 		lds r23,(screen_y_Full)+1
 1524 0054 6451      		subi r22,lo8(-(-20))
 1525 0056 7040      		sbci r23,hi8(-(-20))
 1526 0058 8DE1      		ldi r24,lo8(29)
 1527 005a 90E0      		ldi r25,hi8(29)
 1528 005c 0E94 0000 		call randInRange
 1529 0060 9093 0000 		sts (pitTop)+1,r25
 1530 0064 8093 0000 		sts pitTop,r24
 1531               	.LSM156:
 1532 0068 8E0D      		add r24,r14
 1533 006a 9F1D      		adc r25,r15
 1534 006c 9093 0000 		sts (pitBottom)+1,r25
 1535 0070 8093 0000 		sts pitBottom,r24
 1536               	.LSM157:
 1537 0074 0E94 0000 		call drawPit
 1538               	/* epilogue start */
 1539               	.LSM158:
 1540 0078 1F91      		pop r17
 1541 007a 0F91      		pop r16
 1542               	.LVL93:
 1543 007c FF90      		pop r15
 1544 007e EF90      		pop r14
 1545               	.LVL94:
 1546 0080 0895      		ret
 1547               	.LFE23:
 1549               		.section	.text.setupZombies,"ax",@progbits
 1550               	.global	setupZombies
 1552               	setupZombies:
 1553               	.LFB20:
 1554               	.LSM159:
 1555 0000 2F92      		push r2
 1556 0002 3F92      		push r3
 1557 0004 4F92      		push r4
 1558 0006 5F92      		push r5
 1559 0008 6F92      		push r6
 1560 000a 7F92      		push r7
 1561 000c 8F92      		push r8
 1562 000e 9F92      		push r9
 1563 0010 AF92      		push r10
 1564 0012 BF92      		push r11
 1565 0014 CF92      		push r12
 1566 0016 DF92      		push r13
 1567 0018 EF92      		push r14
 1568 001a FF92      		push r15
 1569 001c 0F93      		push r16
 1570 001e 1F93      		push r17
 1571 0020 DF93      		push r29
 1572 0022 CF93      		push r28
 1573 0024 00D0      		rcall .
 1574 0026 00D0      		rcall .
 1575 0028 00D0      		rcall .
 1576 002a CDB7      		in r28,__SP_L__
 1577 002c DEB7      		in r29,__SP_H__
 1578               	/* prologue: function */
 1579               	/* frame size = 6 */
 1580               	.LSM160:
 1581 002e 8091 0000 		lds r24,screen_x
 1582 0032 9091 0000 		lds r25,(screen_x)+1
 1583 0036 62E0      		ldi r22,lo8(2)
 1584 0038 70E0      		ldi r23,hi8(2)
 1585 003a 0E94 0000 		call __divmodhi4
 1586 003e 6D83      		std Y+5,r22
 1587 0040 7E83      		std Y+6,r23
 1588               	.LSM161:
 1589 0042 8091 0000 		lds r24,screen_y
 1590 0046 9091 0000 		lds r25,(screen_y)+1
 1591 004a 62E0      		ldi r22,lo8(2)
 1592 004c 70E0      		ldi r23,hi8(2)
 1593 004e 0E94 0000 		call __divmodhi4
 1594 0052 1B01      		movw r2,r22
 1595               	.LVL95:
 1596 0054 85E0      		ldi r24,lo8(5)
 1597 0056 90E0      		ldi r25,hi8(5)
 1598 0058 280E      		add r2,r24
 1599 005a 391E      		adc r3,r25
 1600 005c A0E0      		ldi r26,lo8(zombie)
 1601 005e B0E0      		ldi r27,hi8(zombie)
 1602 0060 BA83      		std Y+2,r27
 1603 0062 A983      		std Y+1,r26
 1604 0064 2D01      		movw r4,r26
 1605 0066 6624      		clr r6
 1606 0068 7724      		clr r7
 1607               	.LVL96:
 1608               	.LBB90:
 1609               	.LSM162:
 1610 006a ED81      		ldd r30,Y+5
 1611 006c FE81      		ldd r31,Y+6
 1612 006e 3A97      		sbiw r30,10
 1613 0070 FC83      		std Y+4,r31
 1614 0072 EB83      		std Y+3,r30
 1615 0074 00C0      		rjmp .L86
 1616               	.L87:
 1617 0076 81E0      		ldi r24,lo8(1)
 1618 0078 90E0      		ldi r25,hi8(1)
 1619 007a 6B81      		ldd r22,Y+3
 1620 007c 7C81      		ldd r23,Y+4
 1621 007e 0E94 0000 		call randInRange
 1622 0082 A82E      		mov r10,r24
 1623               	.LSM163:
 1624 0084 6091 0000 		lds r22,screen_y
 1625 0088 7091 0000 		lds r23,(screen_y)+1
 1626 008c 6150      		subi r22,lo8(-(-1))
 1627 008e 7040      		sbci r23,hi8(-(-1))
 1628 0090 89E0      		ldi r24,lo8(9)
 1629 0092 90E0      		ldi r25,hi8(9)
 1630 0094 0E94 0000 		call randInRange
 1631 0098 E82E      		mov r14,r24
 1632               	.LSM164:
 1633 009a D201      		movw r26,r4
 1634 009c 8D90      		ld r8,X+
 1635 009e 9D90      		ld r9,X+
 1636 00a0 2D01      		movw r4,r26
 1637 00a2 BB24      		clr r11
 1638 00a4 CC24      		clr r12
 1639 00a6 DD24      		clr r13
 1640 00a8 C601      		movw r24,r12
 1641 00aa B501      		movw r22,r10
 1642 00ac 0E94 0000 		call __floatunsisf
 1643 00b0 F401      		movw r30,r8
 1644 00b2 6083      		st Z,r22
 1645 00b4 7183      		std Z+1,r23
 1646 00b6 8283      		std Z+2,r24
 1647 00b8 9383      		std Z+3,r25
 1648               	.LSM165:
 1649 00ba FF24      		clr r15
 1650 00bc 00E0      		ldi r16,lo8(0)
 1651 00be 10E0      		ldi r17,hi8(0)
 1652 00c0 C801      		movw r24,r16
 1653 00c2 B701      		movw r22,r14
 1654 00c4 0E94 0000 		call __floatunsisf
 1655 00c8 D401      		movw r26,r8
 1656 00ca 1496      		adiw r26,4
 1657 00cc 6D93      		st X+,r22
 1658 00ce 7D93      		st X+,r23
 1659 00d0 8D93      		st X+,r24
 1660 00d2 9C93      		st X,r25
 1661 00d4 1797      		sbiw r26,4+3
 1662               	.LSM166:
 1663 00d6 0894      		sec
 1664 00d8 611C      		adc r6,__zero_reg__
 1665 00da 711C      		adc r7,__zero_reg__
 1666               	.L86:
 1667 00dc 8091 0000 		lds r24,numZombies
 1668 00e0 9091 0000 		lds r25,(numZombies)+1
 1669 00e4 64E0      		ldi r22,lo8(4)
 1670 00e6 70E0      		ldi r23,hi8(4)
 1671 00e8 0E94 0000 		call __divmodhi4
 1672 00ec 6616      		cp r6,r22
 1673 00ee 7706      		cpc r7,r23
 1674 00f0 04F0      		brlt .L87
 1675 00f2 6624      		clr r6
 1676 00f4 7724      		clr r7
 1677               	.LVL97:
 1678               	.LBE90:
 1679               	.LBB91:
 1680               	.LSM167:
 1681 00f6 4D80      		ldd r4,Y+5
 1682 00f8 5E80      		ldd r5,Y+6
 1683 00fa EAE0      		ldi r30,lo8(10)
 1684 00fc F0E0      		ldi r31,hi8(10)
 1685 00fe 4E0E      		add r4,r30
 1686 0100 5F1E      		adc r5,r31
 1687 0102 00C0      		rjmp .L88
 1688               	.L89:
 1689 0104 6091 0000 		lds r22,screen_x
 1690 0108 7091 0000 		lds r23,(screen_x)+1
 1691 010c C201      		movw r24,r4
 1692 010e 0E94 0000 		call randInRange
 1693 0112 A82E      		mov r10,r24
 1694               	.LSM168:
 1695 0114 6091 0000 		lds r22,screen_y
 1696 0118 7091 0000 		lds r23,(screen_y)+1
 1697 011c 6150      		subi r22,lo8(-(-1))
 1698 011e 7040      		sbci r23,hi8(-(-1))
 1699 0120 89E0      		ldi r24,lo8(9)
 1700 0122 90E0      		ldi r25,hi8(9)
 1701 0124 0E94 0000 		call randInRange
 1702 0128 E82E      		mov r14,r24
 1703               	.LSM169:
 1704 012a 8091 0000 		lds r24,numZombies
 1705 012e 9091 0000 		lds r25,(numZombies)+1
 1706 0132 64E0      		ldi r22,lo8(4)
 1707 0134 70E0      		ldi r23,hi8(4)
 1708 0136 0E94 0000 		call __divmodhi4
 1709 013a FB01      		movw r30,r22
 1710 013c E60D      		add r30,r6
 1711 013e F71D      		adc r31,r7
 1712 0140 EE0F      		lsl r30
 1713 0142 FF1F      		rol r31
 1714 0144 E050      		subi r30,lo8(-(zombie))
 1715 0146 F040      		sbci r31,hi8(-(zombie))
 1716 0148 8080      		ld r8,Z
 1717 014a 9180      		ldd r9,Z+1
 1718 014c BB24      		clr r11
 1719 014e CC24      		clr r12
 1720 0150 DD24      		clr r13
 1721 0152 C601      		movw r24,r12
 1722 0154 B501      		movw r22,r10
 1723 0156 0E94 0000 		call __floatunsisf
 1724 015a D401      		movw r26,r8
 1725 015c 6D93      		st X+,r22
 1726 015e 7D93      		st X+,r23
 1727 0160 8D93      		st X+,r24
 1728 0162 9C93      		st X,r25
 1729 0164 1397      		sbiw r26,3
 1730               	.LSM170:
 1731 0166 FF24      		clr r15
 1732 0168 00E0      		ldi r16,lo8(0)
 1733 016a 10E0      		ldi r17,hi8(0)
 1734 016c C801      		movw r24,r16
 1735 016e B701      		movw r22,r14
 1736 0170 0E94 0000 		call __floatunsisf
 1737 0174 F401      		movw r30,r8
 1738 0176 6483      		std Z+4,r22
 1739 0178 7583      		std Z+5,r23
 1740 017a 8683      		std Z+6,r24
 1741 017c 9783      		std Z+7,r25
 1742               	.LSM171:
 1743 017e 0894      		sec
 1744 0180 611C      		adc r6,__zero_reg__
 1745 0182 711C      		adc r7,__zero_reg__
 1746               	.L88:
 1747 0184 8091 0000 		lds r24,numZombies
 1748 0188 9091 0000 		lds r25,(numZombies)+1
 1749 018c 64E0      		ldi r22,lo8(4)
 1750 018e 70E0      		ldi r23,hi8(4)
 1751 0190 0E94 0000 		call __divmodhi4
 1752 0194 6616      		cp r6,r22
 1753 0196 7706      		cpc r7,r23
 1754 0198 04F4      		brge .+2
 1755 019a 00C0      		rjmp .L89
 1756 019c 4424      		clr r4
 1757 019e 5524      		clr r5
 1758               	.LVL98:
 1759               	.LBE91:
 1760               	.LBB92:
 1761               	.LSM172:
 1762 01a0 E6EF      		ldi r30,lo8(-10)
 1763 01a2 6E2E      		mov r6,r30
 1764 01a4 EFEF      		ldi r30,hi8(-10)
 1765 01a6 7E2E      		mov r7,r30
 1766               	.LVL99:
 1767 01a8 620C      		add r6,r2
 1768 01aa 731C      		adc r7,r3
 1769 01ac 00C0      		rjmp .L90
 1770               	.L91:
 1771               	.LSM173:
 1772 01ae 6091 0000 		lds r22,screen_x
 1773 01b2 7091 0000 		lds r23,(screen_x)+1
 1774 01b6 81E0      		ldi r24,lo8(1)
 1775 01b8 90E0      		ldi r25,hi8(1)
 1776 01ba 0E94 0000 		call randInRange
 1777 01be E82E      		mov r14,r24
 1778               	.LSM174:
 1779 01c0 89E0      		ldi r24,lo8(9)
 1780 01c2 90E0      		ldi r25,hi8(9)
 1781 01c4 B301      		movw r22,r6
 1782 01c6 0E94 0000 		call randInRange
 1783 01ca A82E      		mov r10,r24
 1784               	.LSM175:
 1785 01cc 8091 0000 		lds r24,numZombies
 1786 01d0 9091 0000 		lds r25,(numZombies)+1
 1787 01d4 62E0      		ldi r22,lo8(2)
 1788 01d6 70E0      		ldi r23,hi8(2)
 1789 01d8 0E94 0000 		call __divmodhi4
 1790 01dc FB01      		movw r30,r22
 1791 01de E40D      		add r30,r4
 1792 01e0 F51D      		adc r31,r5
 1793 01e2 EE0F      		lsl r30
 1794 01e4 FF1F      		rol r31
 1795 01e6 E050      		subi r30,lo8(-(zombie))
 1796 01e8 F040      		sbci r31,hi8(-(zombie))
 1797 01ea 8080      		ld r8,Z
 1798 01ec 9180      		ldd r9,Z+1
 1799 01ee FF24      		clr r15
 1800 01f0 00E0      		ldi r16,lo8(0)
 1801 01f2 10E0      		ldi r17,hi8(0)
 1802 01f4 C801      		movw r24,r16
 1803 01f6 B701      		movw r22,r14
 1804 01f8 0E94 0000 		call __floatunsisf
 1805 01fc D401      		movw r26,r8
 1806 01fe 6D93      		st X+,r22
 1807 0200 7D93      		st X+,r23
 1808 0202 8D93      		st X+,r24
 1809 0204 9C93      		st X,r25
 1810 0206 1397      		sbiw r26,3
 1811               	.LSM176:
 1812 0208 BB24      		clr r11
 1813 020a CC24      		clr r12
 1814 020c DD24      		clr r13
 1815 020e C601      		movw r24,r12
 1816 0210 B501      		movw r22,r10
 1817 0212 0E94 0000 		call __floatunsisf
 1818 0216 F401      		movw r30,r8
 1819 0218 6483      		std Z+4,r22
 1820 021a 7583      		std Z+5,r23
 1821 021c 8683      		std Z+6,r24
 1822 021e 9783      		std Z+7,r25
 1823               	.LSM177:
 1824 0220 0894      		sec
 1825 0222 411C      		adc r4,__zero_reg__
 1826 0224 511C      		adc r5,__zero_reg__
 1827               	.L90:
 1828 0226 8091 0000 		lds r24,numZombies
 1829 022a 9091 0000 		lds r25,(numZombies)+1
 1830 022e 64E0      		ldi r22,lo8(4)
 1831 0230 70E0      		ldi r23,hi8(4)
 1832 0232 0E94 0000 		call __divmodhi4
 1833 0236 4616      		cp r4,r22
 1834 0238 5706      		cpc r5,r23
 1835 023a 04F4      		brge .+2
 1836 023c 00C0      		rjmp .L91
 1837 023e 4424      		clr r4
 1838 0240 5524      		clr r5
 1839               	.LVL100:
 1840               	.LBE92:
 1841               	.LBB93:
 1842               	.LSM178:
 1843 0242 6AE0      		ldi r22,lo8(10)
 1844 0244 662E      		mov r6,r22
 1845 0246 712C      		mov r7,__zero_reg__
 1846 0248 620C      		add r6,r2
 1847 024a 731C      		adc r7,r3
 1848 024c 00C0      		rjmp .L92
 1849               	.L93:
 1850               	.LSM179:
 1851 024e 6091 0000 		lds r22,screen_x
 1852 0252 7091 0000 		lds r23,(screen_x)+1
 1853 0256 81E0      		ldi r24,lo8(1)
 1854 0258 90E0      		ldi r25,hi8(1)
 1855 025a 0E94 0000 		call randInRange
 1856 025e E82E      		mov r14,r24
 1857               	.LSM180:
 1858 0260 6091 0000 		lds r22,screen_y
 1859 0264 7091 0000 		lds r23,(screen_y)+1
 1860 0268 C301      		movw r24,r6
 1861 026a 0E94 0000 		call randInRange
 1862 026e A82E      		mov r10,r24
 1863               	.LSM181:
 1864 0270 2091 0000 		lds r18,numZombies
 1865 0274 3091 0000 		lds r19,(numZombies)+1
 1866 0278 C901      		movw r24,r18
 1867 027a 880F      		lsl r24
 1868 027c 991F      		rol r25
 1869 027e 820F      		add r24,r18
 1870 0280 931F      		adc r25,r19
 1871 0282 64E0      		ldi r22,lo8(4)
 1872 0284 70E0      		ldi r23,hi8(4)
 1873 0286 0E94 0000 		call __divmodhi4
 1874 028a FB01      		movw r30,r22
 1875 028c E40D      		add r30,r4
 1876 028e F51D      		adc r31,r5
 1877 0290 EE0F      		lsl r30
 1878 0292 FF1F      		rol r31
 1879 0294 E050      		subi r30,lo8(-(zombie))
 1880 0296 F040      		sbci r31,hi8(-(zombie))
 1881 0298 8080      		ld r8,Z
 1882 029a 9180      		ldd r9,Z+1
 1883 029c FF24      		clr r15
 1884 029e 00E0      		ldi r16,lo8(0)
 1885 02a0 10E0      		ldi r17,hi8(0)
 1886 02a2 C801      		movw r24,r16
 1887 02a4 B701      		movw r22,r14
 1888 02a6 0E94 0000 		call __floatunsisf
 1889 02aa D401      		movw r26,r8
 1890 02ac 6D93      		st X+,r22
 1891 02ae 7D93      		st X+,r23
 1892 02b0 8D93      		st X+,r24
 1893 02b2 9C93      		st X,r25
 1894 02b4 1397      		sbiw r26,3
 1895               	.LSM182:
 1896 02b6 BB24      		clr r11
 1897 02b8 CC24      		clr r12
 1898 02ba DD24      		clr r13
 1899 02bc C601      		movw r24,r12
 1900 02be B501      		movw r22,r10
 1901 02c0 0E94 0000 		call __floatunsisf
 1902 02c4 F401      		movw r30,r8
 1903 02c6 6483      		std Z+4,r22
 1904 02c8 7583      		std Z+5,r23
 1905 02ca 8683      		std Z+6,r24
 1906 02cc 9783      		std Z+7,r25
 1907               	.LSM183:
 1908 02ce 0894      		sec
 1909 02d0 411C      		adc r4,__zero_reg__
 1910 02d2 511C      		adc r5,__zero_reg__
 1911               	.L92:
 1912 02d4 8091 0000 		lds r24,numZombies
 1913 02d8 9091 0000 		lds r25,(numZombies)+1
 1914 02dc 64E0      		ldi r22,lo8(4)
 1915 02de 70E0      		ldi r23,hi8(4)
 1916 02e0 0E94 0000 		call __divmodhi4
 1917 02e4 4616      		cp r4,r22
 1918 02e6 5706      		cpc r5,r23
 1919 02e8 04F4      		brge .+2
 1920 02ea 00C0      		rjmp .L93
 1921 02ec 00E0      		ldi r16,lo8(zDirection)
 1922 02ee 10E0      		ldi r17,hi8(zDirection)
 1923 02f0 6624      		clr r6
 1924 02f2 7724      		clr r7
 1925               	.LVL101:
 1926               	.LBE93:
 1927               	.LBB94:
 1928               	.LSM184:
 1929 02f4 EE24      		clr r14
 1930 02f6 E394      		inc r14
 1931 02f8 00C0      		rjmp .L94
 1932               	.L96:
 1933               	.LSM185:
 1934 02fa 80E0      		ldi r24,lo8(0)
 1935 02fc 90E0      		ldi r25,hi8(0)
 1936 02fe 63E0      		ldi r22,lo8(3)
 1937 0300 70E0      		ldi r23,hi8(3)
 1938 0302 0E94 0000 		call randInRange
 1939 0306 D801      		movw r26,r16
 1940 0308 8D93      		st X+,r24
 1941 030a 9C93      		st X,r25
 1942               	.LSM186:
 1943 030c 8091 0000 		lds r24,notOver
 1944 0310 9091 0000 		lds r25,(notOver)+1
 1945 0314 892B      		or r24,r25
 1946 0316 01F4      		brne .L95
 1947               	.LSM187:
 1948 0318 A981      		ldd r26,Y+1
 1949 031a BA81      		ldd r27,Y+2
 1950 031c ED91      		ld r30,X+
 1951 031e FC91      		ld r31,X
 1952 0320 E286      		std Z+10,r14
 1953               	.L95:
 1954               	.LSM188:
 1955 0322 0894      		sec
 1956 0324 611C      		adc r6,__zero_reg__
 1957 0326 711C      		adc r7,__zero_reg__
 1958 0328 0E5F      		subi r16,lo8(-(2))
 1959 032a 1F4F      		sbci r17,hi8(-(2))
 1960 032c E981      		ldd r30,Y+1
 1961 032e FA81      		ldd r31,Y+2
 1962 0330 3296      		adiw r30,2
 1963 0332 FA83      		std Y+2,r31
 1964 0334 E983      		std Y+1,r30
 1965               	.L94:
 1966 0336 8091 0000 		lds r24,numZombies
 1967 033a 9091 0000 		lds r25,(numZombies)+1
 1968 033e 6816      		cp r6,r24
 1969 0340 7906      		cpc r7,r25
 1970 0342 04F0      		brlt .L96
 1971               	/* epilogue start */
 1972               	.LBE94:
 1973               	.LSM189:
 1974 0344 2696      		adiw r28,6
 1975 0346 0FB6      		in __tmp_reg__,__SREG__
 1976 0348 F894      		cli
 1977 034a DEBF      		out __SP_H__,r29
 1978 034c 0FBE      		out __SREG__,__tmp_reg__
 1979 034e CDBF      		out __SP_L__,r28
 1980 0350 CF91      		pop r28
 1981 0352 DF91      		pop r29
 1982 0354 1F91      		pop r17
 1983 0356 0F91      		pop r16
 1984 0358 FF90      		pop r15
 1985 035a EF90      		pop r14
 1986 035c DF90      		pop r13
 1987 035e CF90      		pop r12
 1988 0360 BF90      		pop r11
 1989 0362 AF90      		pop r10
 1990 0364 9F90      		pop r9
 1991 0366 8F90      		pop r8
 1992 0368 7F90      		pop r7
 1993 036a 6F90      		pop r6
 1994               	.LVL102:
 1995 036c 5F90      		pop r5
 1996 036e 4F90      		pop r4
 1997               	.LVL103:
 1998 0370 3F90      		pop r3
 1999 0372 2F90      		pop r2
 2000               	.LVL104:
 2001 0374 0895      		ret
 2002               	.LFE20:
 2004               		.section	.text.zombiesForward,"ax",@progbits
 2005               	.global	zombiesForward
 2007               	zombiesForward:
 2008               	.LFB18:
 2009               	.LSM190:
 2010 0000 2F92      		push r2
 2011 0002 3F92      		push r3
 2012 0004 4F92      		push r4
 2013 0006 5F92      		push r5
 2014 0008 6F92      		push r6
 2015 000a 7F92      		push r7
 2016 000c 8F92      		push r8
 2017 000e 9F92      		push r9
 2018 0010 AF92      		push r10
 2019 0012 BF92      		push r11
 2020 0014 CF92      		push r12
 2021 0016 DF92      		push r13
 2022 0018 EF92      		push r14
 2023 001a FF92      		push r15
 2024 001c 0F93      		push r16
 2025 001e 1F93      		push r17
 2026 0020 DF93      		push r29
 2027 0022 CF93      		push r28
 2028 0024 00D0      		rcall .
 2029 0026 00D0      		rcall .
 2030 0028 CDB7      		in r28,__SP_L__
 2031 002a DEB7      		in r29,__SP_H__
 2032               	/* prologue: function */
 2033               	/* frame size = 4 */
 2034               	.LSM191:
 2035 002c 20E0      		ldi r18,lo8(zombie)
 2036 002e 30E0      		ldi r19,hi8(zombie)
 2037 0030 3A83      		std Y+2,r19
 2038 0032 2983      		std Y+1,r18
 2039 0034 50E0      		ldi r21,lo8(zDirection)
 2040 0036 652E      		mov r6,r21
 2041 0038 50E0      		ldi r21,hi8(zDirection)
 2042 003a 752E      		mov r7,r21
 2043 003c 4424      		clr r4
 2044 003e 5524      		clr r5
 2045               	.LVL105:
 2046 0040 CC24      		clr r12
 2047 0042 DD24      		clr r13
 2048               	.LVL106:
 2049 0044 2224      		clr r2
 2050 0046 3324      		clr r3
 2051               	.LVL107:
 2052 0048 00C0      		rjmp .L99
 2053               	.LVL108:
 2054               	.L112:
 2055               	.LBB95:
 2056               	.LSM192:
 2057 004a 81E0      		ldi r24,lo8(1)
 2058 004c 90E0      		ldi r25,hi8(1)
 2059 004e 64E6      		ldi r22,lo8(100)
 2060 0050 70E0      		ldi r23,hi8(100)
 2061 0052 0E94 0000 		call randInRange
 2062               	.LSM193:
 2063 0056 8630      		cpi r24,6
 2064 0058 9105      		cpc r25,__zero_reg__
 2065               	.LVL109:
 2066 005a 04F4      		brge .L100
 2067               	.LSM194:
 2068 005c F301      		movw r30,r6
 2069 005e 8081      		ld r24,Z
 2070 0060 9181      		ldd r25,Z+1
 2071               	.LVL110:
 2072 0062 0197      		sbiw r24,1
 2073 0064 9183      		std Z+1,r25
 2074 0066 8083      		st Z,r24
 2075               	.LSM195:
 2076 0068 97FF      		sbrs r25,7
 2077 006a 00C0      		rjmp .L101
 2078               	.LSM196:
 2079 006c 23E0      		ldi r18,lo8(3)
 2080 006e 30E0      		ldi r19,hi8(3)
 2081 0070 3183      		std Z+1,r19
 2082 0072 2083      		st Z,r18
 2083 0074 00C0      		rjmp .L101
 2084               	.LVL111:
 2085               	.L100:
 2086               	.LSM197:
 2087 0076 8036      		cpi r24,96
 2088 0078 9105      		cpc r25,__zero_reg__
 2089 007a 04F0      		brlt .L101
 2090               	.LSM198:
 2091 007c F301      		movw r30,r6
 2092 007e 8081      		ld r24,Z
 2093 0080 9181      		ldd r25,Z+1
 2094               	.LVL112:
 2095 0082 0196      		adiw r24,1
 2096 0084 64E0      		ldi r22,lo8(4)
 2097 0086 70E0      		ldi r23,hi8(4)
 2098 0088 0E94 0000 		call __divmodhi4
 2099 008c 9183      		std Z+1,r25
 2100 008e 8083      		st Z,r24
 2101               	.LVL113:
 2102               	.L101:
 2103               	.LSM199:
 2104 0090 E981      		ldd r30,Y+1
 2105 0092 FA81      		ldd r31,Y+2
 2106 0094 A080      		ld r10,Z
 2107 0096 B180      		ldd r11,Z+1
 2108 0098 C501      		movw r24,r10
 2109               	.LVL114:
 2110 009a 0E94 0000 		call isInPit
 2111 009e 892B      		or r24,r25
 2112 00a0 01F0      		breq .L102
 2113               	.LSM200:
 2114 00a2 E090 0000 		lds r14,pitTop
 2115 00a6 F090 0000 		lds r15,(pitTop)+1
 2116 00aa 22E0      		ldi r18,lo8(2)
 2117 00ac 30E0      		ldi r19,hi8(2)
 2118 00ae E20E      		add r14,r18
 2119 00b0 F31E      		adc r15,r19
 2120               	.LSM201:
 2121 00b2 2091 0000 		lds r18,pitBottom
 2122 00b6 3091 0000 		lds r19,(pitBottom)+1
 2123               	.LVL115:
 2124 00ba 2450      		subi r18,lo8(-(-4))
 2125 00bc 3040      		sbci r19,hi8(-(-4))
 2126               	.LSM202:
 2127 00be 8090 0000 		lds r8,pitLeft
 2128 00c2 9090 0000 		lds r9,(pitLeft)+1
 2129 00c6 82E0      		ldi r24,lo8(2)
 2130 00c8 90E0      		ldi r25,hi8(2)
 2131 00ca 880E      		add r8,r24
 2132 00cc 991E      		adc r9,r25
 2133               	.LSM203:
 2134 00ce E091 0000 		lds r30,pitRight
 2135 00d2 F091 0000 		lds r31,(pitRight)+1
 2136 00d6 3497      		sbiw r30,4
 2137 00d8 FC83      		std Y+4,r31
 2138 00da EB83      		std Y+3,r30
 2139               	.LVL116:
 2140 00dc 00C0      		rjmp .L103
 2141               	.LVL117:
 2142               	.L102:
 2143               	.LSM204:
 2144 00de 2091 0000 		lds r18,screen_y
 2145 00e2 3091 0000 		lds r19,(screen_y)+1
 2146               	.LVL118:
 2147 00e6 2150      		subi r18,lo8(-(-1))
 2148 00e8 3040      		sbci r19,hi8(-(-1))
 2149               	.LSM205:
 2150 00ea 8091 0000 		lds r24,screen_x
 2151 00ee 9091 0000 		lds r25,(screen_x)+1
 2152 00f2 0197      		sbiw r24,1
 2153 00f4 9C83      		std Y+4,r25
 2154 00f6 8B83      		std Y+3,r24
 2155               	.LVL119:
 2156 00f8 4AE0      		ldi r20,lo8(10)
 2157 00fa E42E      		mov r14,r20
 2158 00fc F12C      		mov r15,__zero_reg__
 2159 00fe 92E0      		ldi r25,lo8(2)
 2160 0100 892E      		mov r8,r25
 2161 0102 912C      		mov r9,__zero_reg__
 2162               	.L103:
 2163               	.LSM206:
 2164 0104 F301      		movw r30,r6
 2165 0106 0081      		ld r16,Z
 2166 0108 1181      		ldd r17,Z+1
 2167 010a 0115      		cp r16,__zero_reg__
 2168 010c 1105      		cpc r17,__zero_reg__
 2169 010e 01F4      		brne .L104
 2170               	.LSM207:
 2171 0110 B901      		movw r22,r18
 2172 0112 8827      		clr r24
 2173 0114 77FD      		sbrc r23,7
 2174 0116 8095      		com r24
 2175 0118 982F      		mov r25,r24
 2176               	.LVL120:
 2177 011a 0E94 0000 		call __floatsisf
 2178               	.LVL121:
 2179 011e 9B01      		movw r18,r22
 2180 0120 AC01      		movw r20,r24
 2181 0122 F501      		movw r30,r10
 2182 0124 6481      		ldd r22,Z+4
 2183 0126 7581      		ldd r23,Z+5
 2184 0128 8681      		ldd r24,Z+6
 2185 012a 9781      		ldd r25,Z+7
 2186 012c 0E94 0000 		call __gtsf2
 2187 0130 1816      		cp __zero_reg__,r24
 2188 0132 04F4      		brge .+2
 2189 0134 00C0      		rjmp .L105
 2190 0136 4424      		clr r4
 2191 0138 5524      		clr r5
 2192 013a 81E0      		ldi r24,lo8(1)
 2193 013c C82E      		mov r12,r24
 2194 013e D12C      		mov r13,__zero_reg__
 2195               	.LVL122:
 2196               	.L104:
 2197               	.LSM208:
 2198 0140 0130      		cpi r16,1
 2199 0142 1105      		cpc r17,__zero_reg__
 2200 0144 01F4      		brne .L106
 2201               	.LSM209:
 2202 0146 2B81      		ldd r18,Y+3
 2203 0148 3C81      		ldd r19,Y+4
 2204               	.LVL123:
 2205 014a B901      		movw r22,r18
 2206 014c 8827      		clr r24
 2207 014e 77FD      		sbrc r23,7
 2208 0150 8095      		com r24
 2209 0152 982F      		mov r25,r24
 2210               	.LVL124:
 2211 0154 0E94 0000 		call __floatsisf
 2212               	.LVL125:
 2213 0158 9B01      		movw r18,r22
 2214 015a AC01      		movw r20,r24
 2215 015c F501      		movw r30,r10
 2216 015e 6081      		ld r22,Z
 2217 0160 7181      		ldd r23,Z+1
 2218 0162 8281      		ldd r24,Z+2
 2219 0164 9381      		ldd r25,Z+3
 2220 0166 0E94 0000 		call __gtsf2
 2221 016a 1816      		cp __zero_reg__,r24
 2222 016c 04F4      		brge .+2
 2223 016e 00C0      		rjmp .L107
 2224 0170 00C0      		rjmp .L117
 2225               	.LVL126:
 2226               	.L106:
 2227               	.LSM210:
 2228 0172 0230      		cpi r16,2
 2229 0174 1105      		cpc r17,__zero_reg__
 2230 0176 01F4      		brne .L109
 2231               	.LSM211:
 2232 0178 B701      		movw r22,r14
 2233 017a 8827      		clr r24
 2234 017c 77FD      		sbrc r23,7
 2235 017e 8095      		com r24
 2236 0180 982F      		mov r25,r24
 2237               	.LVL127:
 2238 0182 0E94 0000 		call __floatsisf
 2239               	.LVL128:
 2240 0186 9B01      		movw r18,r22
 2241 0188 AC01      		movw r20,r24
 2242 018a F501      		movw r30,r10
 2243 018c 6481      		ldd r22,Z+4
 2244 018e 7581      		ldd r23,Z+5
 2245 0190 8681      		ldd r24,Z+6
 2246 0192 9781      		ldd r25,Z+7
 2247 0194 0E94 0000 		call __ltsf2
 2248 0198 87FD      		sbrc r24,7
 2249 019a 00C0      		rjmp .L105
 2250 019c CC24      		clr r12
 2251 019e CA94      		dec r12
 2252 01a0 DC2C      		mov r13,r12
 2253 01a2 00C0      		rjmp .L110
 2254               	.LVL129:
 2255               	.L117:
 2256 01a4 B1E0      		ldi r27,lo8(1)
 2257 01a6 4B2E      		mov r4,r27
 2258 01a8 512C      		mov r5,__zero_reg__
 2259 01aa CC24      		clr r12
 2260 01ac DD24      		clr r13
 2261               	.LVL130:
 2262               	.L109:
 2263               	.LSM212:
 2264 01ae 0330      		cpi r16,3
 2265 01b0 1105      		cpc r17,__zero_reg__
 2266 01b2 01F4      		brne .L111
 2267               	.LSM213:
 2268 01b4 B401      		movw r22,r8
 2269 01b6 8827      		clr r24
 2270 01b8 77FD      		sbrc r23,7
 2271 01ba 8095      		com r24
 2272 01bc 982F      		mov r25,r24
 2273               	.LVL131:
 2274 01be 0E94 0000 		call __floatsisf
 2275               	.LVL132:
 2276 01c2 9B01      		movw r18,r22
 2277 01c4 AC01      		movw r20,r24
 2278 01c6 F501      		movw r30,r10
 2279 01c8 6081      		ld r22,Z
 2280 01ca 7181      		ldd r23,Z+1
 2281 01cc 8281      		ldd r24,Z+2
 2282 01ce 9381      		ldd r25,Z+3
 2283 01d0 0E94 0000 		call __ltsf2
 2284 01d4 87FD      		sbrc r24,7
 2285 01d6 00C0      		rjmp .L105
 2286 01d8 4424      		clr r4
 2287 01da 4A94      		dec r4
 2288 01dc 542C      		mov r5,r4
 2289 01de 00C0      		rjmp .L116
 2290               	.LVL133:
 2291               	.L105:
 2292 01e0 4424      		clr r4
 2293 01e2 5524      		clr r5
 2294               	.L116:
 2295 01e4 CC24      		clr r12
 2296 01e6 DD24      		clr r13
 2297               	.LVL134:
 2298               	.L111:
 2299               	.LSM214:
 2300 01e8 B201      		movw r22,r4
 2301 01ea 8827      		clr r24
 2302 01ec 77FD      		sbrc r23,7
 2303 01ee 8095      		com r24
 2304 01f0 982F      		mov r25,r24
 2305               	.LVL135:
 2306 01f2 0E94 0000 		call __floatsisf
 2307               	.LVL136:
 2308 01f6 9B01      		movw r18,r22
 2309 01f8 AC01      		movw r20,r24
 2310 01fa F501      		movw r30,r10
 2311 01fc 6081      		ld r22,Z
 2312 01fe 7181      		ldd r23,Z+1
 2313 0200 8281      		ldd r24,Z+2
 2314 0202 9381      		ldd r25,Z+3
 2315 0204 0E94 0000 		call __addsf3
 2316 0208 F501      		movw r30,r10
 2317 020a 6083      		st Z,r22
 2318 020c 7183      		std Z+1,r23
 2319 020e 8283      		std Z+2,r24
 2320 0210 9383      		std Z+3,r25
 2321               	.LSM215:
 2322 0212 E981      		ldd r30,Y+1
 2323 0214 FA81      		ldd r31,Y+2
 2324 0216 0191      		ld r16,Z+
 2325 0218 1191      		ld r17,Z+
 2326 021a FA83      		std Y+2,r31
 2327 021c E983      		std Y+1,r30
 2328 021e B601      		movw r22,r12
 2329 0220 8827      		clr r24
 2330 0222 77FD      		sbrc r23,7
 2331 0224 8095      		com r24
 2332 0226 982F      		mov r25,r24
 2333               	.LVL137:
 2334 0228 0E94 0000 		call __floatsisf
 2335               	.LVL138:
 2336 022c 9B01      		movw r18,r22
 2337 022e AC01      		movw r20,r24
 2338 0230 F801      		movw r30,r16
 2339 0232 6481      		ldd r22,Z+4
 2340 0234 7581      		ldd r23,Z+5
 2341 0236 8681      		ldd r24,Z+6
 2342 0238 9781      		ldd r25,Z+7
 2343 023a 0E94 0000 		call __addsf3
 2344 023e F801      		movw r30,r16
 2345 0240 6483      		std Z+4,r22
 2346 0242 7583      		std Z+5,r23
 2347 0244 8683      		std Z+6,r24
 2348 0246 9783      		std Z+7,r25
 2349               	.LSM216:
 2350 0248 0894      		sec
 2351 024a 211C      		adc r2,__zero_reg__
 2352 024c 311C      		adc r3,__zero_reg__
 2353 024e 22E0      		ldi r18,lo8(2)
 2354 0250 30E0      		ldi r19,hi8(2)
 2355 0252 620E      		add r6,r18
 2356 0254 731E      		adc r7,r19
 2357               	.LVL139:
 2358               	.L99:
 2359 0256 8091 0000 		lds r24,numZombies
 2360 025a 9091 0000 		lds r25,(numZombies)+1
 2361 025e 2816      		cp r2,r24
 2362 0260 3906      		cpc r3,r25
 2363 0262 04F4      		brge .+2
 2364 0264 00C0      		rjmp .L112
 2365 0266 00C0      		rjmp .L118
 2366               	.LVL140:
 2367               	.L107:
 2368               	.LSM217:
 2369 0268 CC24      		clr r12
 2370 026a DD24      		clr r13
 2371               	.LVL141:
 2372               	.L110:
 2373 026c 4424      		clr r4
 2374 026e 5524      		clr r5
 2375 0270 00C0      		rjmp .L111
 2376               	.L118:
 2377               	/* epilogue start */
 2378               	.LBE95:
 2379 0272 0F90      		pop __tmp_reg__
 2380 0274 0F90      		pop __tmp_reg__
 2381 0276 0F90      		pop __tmp_reg__
 2382 0278 0F90      		pop __tmp_reg__
 2383 027a CF91      		pop r28
 2384 027c DF91      		pop r29
 2385 027e 1F91      		pop r17
 2386 0280 0F91      		pop r16
 2387 0282 FF90      		pop r15
 2388 0284 EF90      		pop r14
 2389               	.LVL142:
 2390 0286 DF90      		pop r13
 2391 0288 CF90      		pop r12
 2392               	.LVL143:
 2393 028a BF90      		pop r11
 2394 028c AF90      		pop r10
 2395 028e 9F90      		pop r9
 2396 0290 8F90      		pop r8
 2397               	.LVL144:
 2398 0292 7F90      		pop r7
 2399 0294 6F90      		pop r6
 2400 0296 5F90      		pop r5
 2401 0298 4F90      		pop r4
 2402               	.LVL145:
 2403 029a 3F90      		pop r3
 2404 029c 2F90      		pop r2
 2405               	.LVL146:
 2406 029e 0895      		ret
 2407               	.LFE18:
 2409               		.section	.text.__vector_23,"ax",@progbits
 2410               	.global	__vector_23
 2412               	__vector_23:
 2413               	.LFB16:
 2414               	.LSM218:
 2415 0000 1F92      		push __zero_reg__
 2416 0002 0F92      		push r0
 2417 0004 0FB6      		in r0,__SREG__
 2418 0006 0F92      		push r0
 2419 0008 1124      		clr __zero_reg__
 2420 000a 2F93      		push r18
 2421 000c 3F93      		push r19
 2422 000e 4F93      		push r20
 2423 0010 5F93      		push r21
 2424 0012 6F93      		push r22
 2425 0014 7F93      		push r23
 2426 0016 8F93      		push r24
 2427 0018 9F93      		push r25
 2428 001a AF93      		push r26
 2429 001c BF93      		push r27
 2430 001e EF93      		push r30
 2431 0020 FF93      		push r31
 2432               	/* prologue: Signal */
 2433               	/* frame size = 0 */
 2434               	.LSM219:
 2435 0022 A89A      		sbi 53-32,0
 2436               	.LSM220:
 2437 0024 8091 0000 		lds r24,clockCounter
 2438 0028 9091 0000 		lds r25,(clockCounter)+1
 2439 002c 0196      		adiw r24,1
 2440 002e 9093 0000 		sts (clockCounter)+1,r25
 2441 0032 8093 0000 		sts clockCounter,r24
 2442               	.LSM221:
 2443 0036 8091 0000 		lds r24,clockCounter
 2444 003a 9091 0000 		lds r25,(clockCounter)+1
 2445 003e 0597      		sbiw r24,5
 2446 0040 04F4      		brge .+2
 2447 0042 00C0      		rjmp .L123
 2448 0044 8091 0000 		lds r24,GAMEON
 2449 0048 9091 0000 		lds r25,(GAMEON)+1
 2450 004c 892B      		or r24,r25
 2451 004e 01F0      		breq .L123
 2452               	.LSM222:
 2453 0050 1092 0000 		sts (clockCounter)+1,__zero_reg__
 2454 0054 1092 0000 		sts clockCounter,__zero_reg__
 2455               	.LSM223:
 2456 0058 8091 0000 		lds r24,stepsCounter
 2457 005c 9091 0000 		lds r25,(stepsCounter)+1
 2458 0060 0196      		adiw r24,1
 2459 0062 9093 0000 		sts (stepsCounter)+1,r25
 2460 0066 8093 0000 		sts stepsCounter,r24
 2461               	.LSM224:
 2462 006a 8091 0000 		lds r24,stepsCounter
 2463 006e 9091 0000 		lds r25,(stepsCounter)+1
 2464 0072 0A97      		sbiw r24,10
 2465 0074 04F0      		brlt .L121
 2466               	.LSM225:
 2467 0076 8091 0000 		lds r24,scoreCounter
 2468 007a 9091 0000 		lds r25,(scoreCounter)+1
 2469 007e 0196      		adiw r24,1
 2470 0080 9093 0000 		sts (scoreCounter)+1,r25
 2471 0084 8093 0000 		sts scoreCounter,r24
 2472               	.LSM226:
 2473 0088 1092 0000 		sts (stepsCounter)+1,__zero_reg__
 2474 008c 1092 0000 		sts stepsCounter,__zero_reg__
 2475               	.LSM227:
 2476 0090 0E94 0000 		call zombiesForward
 2477               	.L121:
 2478               	.LSM228:
 2479 0094 8091 0000 		lds r24,scoreCounter
 2480 0098 9091 0000 		lds r25,(scoreCounter)+1
 2481 009c 0697      		sbiw r24,6
 2482 009e 04F0      		brlt .L122
 2483               	.LSM229:
 2484 00a0 1092 0000 		sts (scoreCounter)+1,__zero_reg__
 2485 00a4 1092 0000 		sts scoreCounter,__zero_reg__
 2486               	.LSM230:
 2487 00a8 8091 0000 		lds r24,Score
 2488 00ac 9091 0000 		lds r25,(Score)+1
 2489 00b0 0196      		adiw r24,1
 2490 00b2 9093 0000 		sts (Score)+1,r25
 2491 00b6 8093 0000 		sts Score,r24
 2492               	.L122:
 2493               	.LSM231:
 2494 00ba 0E94 0000 		call heroForward
 2495               	.L123:
 2496               	/* epilogue start */
 2497               	.LSM232:
 2498 00be FF91      		pop r31
 2499 00c0 EF91      		pop r30
 2500 00c2 BF91      		pop r27
 2501 00c4 AF91      		pop r26
 2502 00c6 9F91      		pop r25
 2503 00c8 8F91      		pop r24
 2504 00ca 7F91      		pop r23
 2505 00cc 6F91      		pop r22
 2506 00ce 5F91      		pop r21
 2507 00d0 4F91      		pop r20
 2508 00d2 3F91      		pop r19
 2509 00d4 2F91      		pop r18
 2510 00d6 0F90      		pop r0
 2511 00d8 0FBE      		out __SREG__,r0
 2512 00da 0F90      		pop r0
 2513 00dc 1F90      		pop __zero_reg__
 2514 00de 1895      		reti
 2515               	.LFE16:
 2517               		.data
 2518               	.LC3:
 2519 0018 5A6F 6D62 		.string	"ZombieDash v1.0"
 2519      6965 4461 
 2519      7368 2076 
 2519      312E 3000 
 2520               	.LC4:
 2521 0028 4C61 6368 		.string	"Lachlan Robinson"
 2521      6C61 6E20 
 2521      526F 6269 
 2521      6E73 6F6E 
 2521      00
 2522               	.LC5:
 2523 0039 6E38 3834 		.string	"n8845409"
 2523      3534 3039 
 2523      00
 2524               		.section	.text.setupGame,"ax",@progbits
 2525               	.global	setupGame
 2527               	setupGame:
 2528               	.LFB8:
 2529               	.LSM233:
 2530               	/* prologue: function */
 2531               	/* frame size = 0 */
 2532               	.LSM234:
 2533 0000 84B1      		in r24,36-32
 2534 0002 8C60      		ori r24,lo8(12)
 2535 0004 84B9      		out 36-32,r24
 2536               	.LSM235:
 2537 0006 569A      		sbi 42-32,6
 2538               	.LSM236:
 2539 0008 8BB1      		in r24,43-32
 2540 000a 8BB9      		out 43-32,r24
 2541               	.LSM237:
 2542 000c 289A      		sbi 37-32,0
 2543               	.LSM238:
 2544 000e E1E6      		ldi r30,lo8(97)
 2545 0010 F0E0      		ldi r31,hi8(97)
 2546 0012 80E8      		ldi r24,lo8(-128)
 2547 0014 8083      		st Z,r24
 2548 0016 1082      		st Z,__zero_reg__
 2549               	.LSM239:
 2550 0018 8FE3      		ldi r24,lo8(63)
 2551 001a 0E94 0000 		call LCDInitialise
 2552               	.LSM240:
 2553 001e 0E94 0000 		call clear
 2554               	.LSM241:
 2555 0022 0E94 0000 		call PinChangeInit
 2556               	.LSM242:
 2557 0026 0E94 0000 		call TimerInit
 2558               	.LSM243:
 2559 002a 0E94 0000 		call clear
 2560               	.LSM244:
 2561 002e 80E0      		ldi r24,lo8(.LC3)
 2562 0030 90E0      		ldi r25,hi8(.LC3)
 2563 0032 64E0      		ldi r22,lo8(4)
 2564 0034 40E0      		ldi r20,lo8(0)
 2565 0036 0E94 0000 		call draw_string
 2566               	.LSM245:
 2567 003a 80E0      		ldi r24,lo8(.LC4)
 2568 003c 90E0      		ldi r25,hi8(.LC4)
 2569 003e 62E0      		ldi r22,lo8(2)
 2570 0040 49E0      		ldi r20,lo8(9)
 2571 0042 0E94 0000 		call draw_string
 2572               	.LSM246:
 2573 0046 80E0      		ldi r24,lo8(.LC5)
 2574 0048 90E0      		ldi r25,hi8(.LC5)
 2575 004a 66E1      		ldi r22,lo8(22)
 2576 004c 4CE1      		ldi r20,lo8(28)
 2577 004e 0E94 0000 		call draw_string
 2578               	.LSM247:
 2579 0052 0E94 0000 		call refresh
 2580               	.LSM248:
 2581 0056 0E94 0000 		call seedWithButtonPress
 2582               	.LSM249:
 2583 005a 0E94 0000 		call buttonCheck
 2584               	.LSM250:
 2585 005e 0E94 0000 		call CountDown
 2586               	.LSM251:
 2587 0062 83E0      		ldi r24,lo8(3)
 2588 0064 90E0      		ldi r25,hi8(3)
 2589 0066 9093 0000 		sts (Lives)+1,r25
 2590 006a 8093 0000 		sts Lives,r24
 2591               	.LSM252:
 2592 006e 1092 0000 		sts (Score)+1,__zero_reg__
 2593 0072 1092 0000 		sts Score,__zero_reg__
 2594               	.LSM253:
 2595 0076 8091 0000 		lds r24,numZombies
 2596 007a 9091 0000 		lds r25,(numZombies)+1
 2597 007e 9093 0000 		sts (activeZombies)+1,r25
 2598 0082 8093 0000 		sts activeZombies,r24
 2599               	/* epilogue start */
 2600               	.LSM254:
 2601 0086 0895      		ret
 2602               	.LFE8:
 2604               		.data
 2605               	.LC6:
 2606 0042 596F 7520 		.string	"You WIN!"
 2606      5749 4E21 
 2606      00
 2607               		.section	.text.winScreen,"ax",@progbits
 2608               	.global	winScreen
 2610               	winScreen:
 2611               	.LFB28:
 2612               	.LSM255:
 2613 0000 0F93      		push r16
 2614 0002 1F93      		push r17
 2615 0004 CF93      		push r28
 2616 0006 DF93      		push r29
 2617               	/* prologue: function */
 2618               	/* frame size = 0 */
 2619               	.LSM256:
 2620 0008 C091 0000 		lds r28,screen_x
 2621 000c D091 0000 		lds r29,(screen_x)+1
 2622               	.LSM257:
 2623 0010 0091 0000 		lds r16,screen_y
 2624 0014 1091 0000 		lds r17,(screen_y)+1
 2625 0018 88E8      		ldi r24,lo8(5000)
 2626 001a 93E1      		ldi r25,hi8(5000)
 2627               	.LVL147:
 2628               	.LBB96:
 2629               	.LBB97:
 2630               	.LBB98:
 2631               	.LBB99:
 2632               	.LSM258:
 2633 001c 20E9      		ldi r18,lo8(400)
 2634 001e 31E0      		ldi r19,hi8(400)
 2635               	.L127:
 2636 0020 F901      		movw r30,r18
 2637               	.LVL148:
 2638               	/* #APP */
 2639               	 ;  105 "c:/winavr-20100110/lib/gcc/../../avr/include/util/delay_basic.h" 1
 2640 0022 3197      		1: sbiw r30,1
 2641 0024 01F4      		brne 1b
 2642               	 ;  0 "" 2
 2643               	/* #NOAPP */
 2644               	.LBE99:
 2645               	.LBE98:
 2646               	.LSM259:
 2647 0026 0197      		sbiw r24,1
 2648               	.LSM260:
 2649 0028 01F4      		brne .L127
 2650               	.LBE97:
 2651               	.LBE96:
 2652               	.LSM261:
 2653 002a 0E94 0000 		call clear
 2654               	.LVL149:
 2655               	.LSM262:
 2656 002e CE01      		movw r24,r28
 2657 0030 62E0      		ldi r22,lo8(2)
 2658 0032 70E0      		ldi r23,hi8(2)
 2659 0034 0E94 0000 		call __divmodhi4
 2660 0038 262F      		mov r18,r22
 2661 003a 2151      		subi r18,lo8(-(-17))
 2662 003c C801      		movw r24,r16
 2663 003e 62E0      		ldi r22,lo8(2)
 2664 0040 70E0      		ldi r23,hi8(2)
 2665 0042 0E94 0000 		call __divmodhi4
 2666 0046 462F      		mov r20,r22
 2667 0048 80E0      		ldi r24,lo8(.LC6)
 2668 004a 90E0      		ldi r25,hi8(.LC6)
 2669 004c 622F      		mov r22,r18
 2670 004e 0E94 0000 		call draw_string
 2671               	.LSM263:
 2672 0052 0E94 0000 		call refresh
 2673 0056 88E9      		ldi r24,lo8(15000)
 2674 0058 9AE3      		ldi r25,hi8(15000)
 2675               	.LVL150:
 2676               	.LBB100:
 2677               	.LBB101:
 2678               	.LBB102:
 2679               	.LBB103:
 2680               	.LSM264:
 2681 005a 20E9      		ldi r18,lo8(400)
 2682 005c 31E0      		ldi r19,hi8(400)
 2683               	.L128:
 2684 005e F901      		movw r30,r18
 2685               	.LVL151:
 2686               	/* #APP */
 2687               	 ;  105 "c:/winavr-20100110/lib/gcc/../../avr/include/util/delay_basic.h" 1
 2688 0060 3197      		1: sbiw r30,1
 2689 0062 01F4      		brne 1b
 2690               	 ;  0 "" 2
 2691               	/* #NOAPP */
 2692               	.LBE103:
 2693               	.LBE102:
 2694               	.LSM265:
 2695 0064 0197      		sbiw r24,1
 2696               	.LSM266:
 2697 0066 01F4      		brne .L128
 2698               	.LBE101:
 2699               	.LBE100:
 2700               	.LSM267:
 2701 0068 0E94 0000 		call setupGame
 2702               	.LVL152:
 2703               	.LSM268:
 2704 006c 0E94 0000 		call setupHero
 2705               	.LSM269:
 2706 0070 0E94 0000 		call setupZombies
 2707               	.LSM270:
 2708 0074 0E94 0000 		call setupPit
 2709               	.LSM271:
 2710 0078 0E94 0000 		call setupSword
 2711               	.LSM272:
 2712 007c 1092 0000 		sts (gotSword)+1,__zero_reg__
 2713 0080 1092 0000 		sts gotSword,__zero_reg__
 2714               	.LSM273:
 2715 0084 0E94 0000 		call setupGrenade
 2716               	.LSM274:
 2717 0088 1092 0000 		sts (gotGrenade)+1,__zero_reg__
 2718 008c 1092 0000 		sts gotGrenade,__zero_reg__
 2719               	/* epilogue start */
 2720               	.LSM275:
 2721 0090 DF91      		pop r29
 2722 0092 CF91      		pop r28
 2723 0094 1F91      		pop r17
 2724 0096 0F91      		pop r16
 2725 0098 0895      		ret
 2726               	.LFE28:
 2728               		.data
 2729               	.LC7:
 2730 004b 546F 7563 		.string	"Touched A Zombie!"
 2730      6865 6420 
 2730      4120 5A6F 
 2730      6D62 6965 
 2730      2100 
 2731               	.LC8:
 2732 005d 4761 6D65 		.string	"Game OVER!"
 2732      204F 5645 
 2732      5221 00
 2733               		.section	.text.collision,"ax",@progbits
 2734               	.global	collision
 2736               	collision:
 2737               	.LFB22:
 2738               	.LSM276:
 2739 0000 2F92      		push r2
 2740 0002 3F92      		push r3
 2741 0004 4F92      		push r4
 2742 0006 5F92      		push r5
 2743 0008 6F92      		push r6
 2744 000a 7F92      		push r7
 2745 000c 8F92      		push r8
 2746 000e 9F92      		push r9
 2747 0010 AF92      		push r10
 2748 0012 BF92      		push r11
 2749 0014 CF92      		push r12
 2750 0016 DF92      		push r13
 2751 0018 EF92      		push r14
 2752 001a FF92      		push r15
 2753 001c 0F93      		push r16
 2754 001e 1F93      		push r17
 2755 0020 DF93      		push r29
 2756 0022 CF93      		push r28
 2757 0024 CDB7      		in r28,__SP_L__
 2758 0026 DEB7      		in r29,__SP_H__
 2759 0028 2897      		sbiw r28,8
 2760 002a 0FB6      		in __tmp_reg__,__SREG__
 2761 002c F894      		cli
 2762 002e DEBF      		out __SP_H__,r29
 2763 0030 0FBE      		out __SREG__,__tmp_reg__
 2764 0032 CDBF      		out __SP_L__,r28
 2765               	/* prologue: function */
 2766               	/* frame size = 8 */
 2767               	.LSM277:
 2768 0034 8091 0000 		lds r24,screen_x
 2769 0038 9091 0000 		lds r25,(screen_x)+1
 2770 003c 62E0      		ldi r22,lo8(2)
 2771 003e 70E0      		ldi r23,hi8(2)
 2772 0040 0E94 0000 		call __divmodhi4
 2773 0044 562E      		mov r5,r22
 2774               	.LSM278:
 2775 0046 8091 0000 		lds r24,screen_y
 2776 004a 9091 0000 		lds r25,(screen_y)+1
 2777 004e 62E0      		ldi r22,lo8(2)
 2778 0050 70E0      		ldi r23,hi8(2)
 2779 0052 0E94 0000 		call __divmodhi4
 2780 0056 6A83      		std Y+2,r22
 2781               	.LSM279:
 2782 0058 0091 0000 		lds r16,my_pointer
 2783 005c 1091 0000 		lds r17,(my_pointer)+1
 2784 0060 D801      		movw r26,r16
 2785 0062 6D91      		ld r22,X+
 2786 0064 7D91      		ld r23,X+
 2787 0066 8D91      		ld r24,X+
 2788 0068 9C91      		ld r25,X
 2789 006a 0E94 0000 		call __fixunssfsi
 2790 006e 462E      		mov r4,r22
 2791               	.LVL153:
 2792               	.LSM280:
 2793 0070 F801      		movw r30,r16
 2794 0072 6481      		ldd r22,Z+4
 2795 0074 7581      		ldd r23,Z+5
 2796 0076 8681      		ldd r24,Z+6
 2797 0078 9781      		ldd r25,Z+7
 2798 007a 0E94 0000 		call __fixunssfsi
 2799 007e 6983      		std Y+1,r22
 2800               	.LVL154:
 2801               	.LSM281:
 2802 0080 0091 0000 		lds r16,sword
 2803 0084 1091 0000 		lds r17,(sword)+1
 2804 0088 D801      		movw r26,r16
 2805 008a 6D91      		ld r22,X+
 2806 008c 7D91      		ld r23,X+
 2807 008e 8D91      		ld r24,X+
 2808 0090 9C91      		ld r25,X
 2809 0092 0E94 0000 		call __fixsfsi
 2810 0096 6B01      		movw r12,r22
 2811               	.LVL155:
 2812               	.LSM282:
 2813 0098 F801      		movw r30,r16
 2814 009a 6481      		ldd r22,Z+4
 2815 009c 7581      		ldd r23,Z+5
 2816 009e 8681      		ldd r24,Z+6
 2817 00a0 9781      		ldd r25,Z+7
 2818 00a2 0E94 0000 		call __fixsfsi
 2819 00a6 5B01      		movw r10,r22
 2820               	.LVL156:
 2821 00a8 70E0      		ldi r23,lo8(zombie)
 2822 00aa E72E      		mov r14,r23
 2823 00ac 70E0      		ldi r23,hi8(zombie)
 2824 00ae F72E      		mov r15,r23
 2825 00b0 8824      		clr r8
 2826 00b2 9924      		clr r9
 2827               	.LVL157:
 2828               	.LBB104:
 2829               	.LBB105:
 2830               	.LSM283:
 2831 00b4 242D      		mov r18,r4
 2832 00b6 30E0      		ldi r19,lo8(0)
 2833 00b8 3C83      		std Y+4,r19
 2834 00ba 2B83      		std Y+3,r18
 2835 00bc 3981      		ldd r19,Y+1
 2836 00be 232E      		mov r2,r19
 2837 00c0 3324      		clr r3
 2838               	.LBB106:
 2839               	.LBB107:
 2840               	.LBB108:
 2841               	.LBB109:
 2842               	.LSM284:
 2843 00c2 60E9      		ldi r22,lo8(400)
 2844 00c4 662E      		mov r6,r22
 2845 00c6 61E0      		ldi r22,hi8(400)
 2846 00c8 762E      		mov r7,r22
 2847               	.LBE109:
 2848               	.LBE108:
 2849               	.LBE107:
 2850               	.LBE106:
 2851               	.LSM285:
 2852 00ca 87EE      		ldi r24,lo8(-25)
 2853 00cc 580E      		add r5,r24
 2854 00ce 00C0      		rjmp .L133
 2855               	.LVL158:
 2856               	.L142:
 2857               	.LSM286:
 2858 00d0 D701      		movw r26,r14
 2859 00d2 0D90      		ld __tmp_reg__,X+
 2860 00d4 BC91      		ld r27,X
 2861 00d6 A02D      		mov r26,__tmp_reg__
 2862 00d8 B887      		std Y+8,r27
 2863 00da AF83      		std Y+7,r26
 2864               	.LSM287:
 2865 00dc 1496      		adiw r26,4
 2866 00de 6D91      		ld r22,X+
 2867 00e0 7D91      		ld r23,X+
 2868 00e2 8D91      		ld r24,X+
 2869 00e4 9C91      		ld r25,X
 2870 00e6 1797      		sbiw r26,4+3
 2871 00e8 0E94 0000 		call __fixunssfsi
 2872 00ec 162F      		mov r17,r22
 2873               	.LSM288:
 2874 00ee EF81      		ldd r30,Y+7
 2875 00f0 F885      		ldd r31,Y+8
 2876 00f2 6081      		ld r22,Z
 2877 00f4 7181      		ldd r23,Z+1
 2878 00f6 8281      		ldd r24,Z+2
 2879 00f8 9381      		ldd r25,Z+3
 2880 00fa 0E94 0000 		call __fixunssfsi
 2881 00fe 70E0      		ldi r23,lo8(0)
 2882 0100 E02F      		mov r30,r16
 2883 0102 F0E0      		ldi r31,lo8(0)
 2884 0104 9B01      		movw r18,r22
 2885 0106 2E1B      		sub r18,r30
 2886 0108 3F0B      		sbc r19,r31
 2887 010a 3E83      		std Y+6,r19
 2888 010c 2D83      		std Y+5,r18
 2889 010e 2C15      		cp r18,r12
 2890 0110 3D05      		cpc r19,r13
 2891 0112 04F4      		brge .L134
 2892 0114 CB01      		movw r24,r22
 2893 0116 8E0F      		add r24,r30
 2894 0118 9F1F      		adc r25,r31
 2895 011a C816      		cp r12,r24
 2896 011c D906      		cpc r13,r25
 2897 011e 04F4      		brge .L134
 2898 0120 212F      		mov r18,r17
 2899 0122 30E0      		ldi r19,lo8(0)
 2900 0124 8091 0000 		lds r24,height
 2901 0128 482F      		mov r20,r24
 2902 012a 50E0      		ldi r21,lo8(0)
 2903 012c C901      		movw r24,r18
 2904 012e 841B      		sub r24,r20
 2905 0130 950B      		sbc r25,r21
 2906 0132 8A15      		cp r24,r10
 2907 0134 9B05      		cpc r25,r11
 2908 0136 04F4      		brge .L134
 2909 0138 240F      		add r18,r20
 2910 013a 351F      		adc r19,r21
 2911 013c A216      		cp r10,r18
 2912 013e B306      		cpc r11,r19
 2913 0140 04F4      		brge .L134
 2914 0142 8091 0000 		lds r24,gotSword
 2915 0146 9091 0000 		lds r25,(gotSword)+1
 2916 014a 892B      		or r24,r25
 2917 014c 01F0      		breq .L134
 2918 014e AF81      		ldd r26,Y+7
 2919 0150 B885      		ldd r27,Y+8
 2920 0152 1A96      		adiw r26,10
 2921 0154 8C91      		ld r24,X
 2922 0156 1A97      		sbiw r26,10
 2923 0158 8130      		cpi r24,lo8(1)
 2924 015a 01F4      		brne .L134
 2925               	.LSM289:
 2926 015c 1A96      		adiw r26,10
 2927 015e 1C92      		st X,__zero_reg__
 2928               	.LSM290:
 2929 0160 8091 0000 		lds r24,Score
 2930 0164 9091 0000 		lds r25,(Score)+1
 2931 0168 0196      		adiw r24,1
 2932 016a 9093 0000 		sts (Score)+1,r25
 2933 016e 8093 0000 		sts Score,r24
 2934               	.LSM291:
 2935 0172 8091 0000 		lds r24,activeZombies
 2936 0176 9091 0000 		lds r25,(activeZombies)+1
 2937 017a 0197      		sbiw r24,1
 2938 017c 9093 0000 		sts (activeZombies)+1,r25
 2939 0180 8093 0000 		sts activeZombies,r24
 2940               	.L134:
 2941               	.LSM292:
 2942 0184 2B81      		ldd r18,Y+3
 2943 0186 3C81      		ldd r19,Y+4
 2944 0188 8D81      		ldd r24,Y+5
 2945 018a 9E81      		ldd r25,Y+6
 2946 018c 8217      		cp r24,r18
 2947 018e 9307      		cpc r25,r19
 2948 0190 04F0      		brlt .+2
 2949 0192 00C0      		rjmp .L135
 2950 0194 6E0F      		add r22,r30
 2951 0196 7F1F      		adc r23,r31
 2952 0198 2617      		cp r18,r22
 2953 019a 3707      		cpc r19,r23
 2954 019c 04F0      		brlt .+2
 2955 019e 00C0      		rjmp .L135
 2956 01a0 612F      		mov r22,r17
 2957 01a2 70E0      		ldi r23,lo8(0)
 2958 01a4 8091 0000 		lds r24,height
 2959 01a8 282F      		mov r18,r24
 2960 01aa 30E0      		ldi r19,lo8(0)
 2961 01ac CB01      		movw r24,r22
 2962 01ae 821B      		sub r24,r18
 2963 01b0 930B      		sbc r25,r19
 2964 01b2 8215      		cp r24,r2
 2965 01b4 9305      		cpc r25,r3
 2966 01b6 04F0      		brlt .+2
 2967 01b8 00C0      		rjmp .L135
 2968 01ba 620F      		add r22,r18
 2969 01bc 731F      		adc r23,r19
 2970 01be 2616      		cp r2,r22
 2971 01c0 3706      		cpc r3,r23
 2972 01c2 04F0      		brlt .+2
 2973 01c4 00C0      		rjmp .L135
 2974 01c6 D701      		movw r26,r14
 2975 01c8 ED91      		ld r30,X+
 2976 01ca FC91      		ld r31,X
 2977 01cc 8285      		ldd r24,Z+10
 2978 01ce 8130      		cpi r24,lo8(1)
 2979 01d0 01F0      		breq .+2
 2980 01d2 00C0      		rjmp .L135
 2981               	.LSM293:
 2982 01d4 1092 0000 		sts (GAMEON)+1,__zero_reg__
 2983 01d8 1092 0000 		sts GAMEON,__zero_reg__
 2984               	.LSM294:
 2985 01dc 8091 0000 		lds r24,Lives
 2986 01e0 9091 0000 		lds r25,(Lives)+1
 2987 01e4 1816      		cp __zero_reg__,r24
 2988 01e6 1906      		cpc __zero_reg__,r25
 2989 01e8 04F4      		brge .L136
 2990 01ea 88EB      		ldi r24,lo8(3000)
 2991 01ec 9BE0      		ldi r25,hi8(3000)
 2992               	.LVL159:
 2993               	.L137:
 2994               	.LBB113:
 2995               	.LBB114:
 2996               	.LBB115:
 2997               	.LBB116:
 2998               	.LSM295:
 2999 01ee F301      		movw r30,r6
 3000               	.LVL160:
 3001               	/* #APP */
 3002               	 ;  105 "c:/winavr-20100110/lib/gcc/../../avr/include/util/delay_basic.h" 1
 3003 01f0 3197      		1: sbiw r30,1
 3004 01f2 01F4      		brne 1b
 3005               	 ;  0 "" 2
 3006               	/* #NOAPP */
 3007               	.LBE116:
 3008               	.LBE115:
 3009               	.LSM296:
 3010 01f4 0197      		sbiw r24,1
 3011               	.LSM297:
 3012 01f6 01F4      		brne .L137
 3013               	.LBE114:
 3014               	.LBE113:
 3015               	.LSM298:
 3016 01f8 0E94 0000 		call clear
 3017               	.LVL161:
 3018               	.LSM299:
 3019 01fc 80E0      		ldi r24,lo8(.LC7)
 3020 01fe 90E0      		ldi r25,hi8(.LC7)
 3021 0200 60E0      		ldi r22,lo8(0)
 3022 0202 4A81      		ldd r20,Y+2
 3023 0204 0E94 0000 		call draw_string
 3024               	.LSM300:
 3025 0208 0E94 0000 		call refresh
 3026 020c 88E9      		ldi r24,lo8(15000)
 3027 020e 9AE3      		ldi r25,hi8(15000)
 3028               	.LVL162:
 3029               	.L138:
 3030               	.LBB117:
 3031               	.LBB118:
 3032               	.LBB119:
 3033               	.LBB120:
 3034               	.LSM301:
 3035 0210 F301      		movw r30,r6
 3036               	.LVL163:
 3037               	/* #APP */
 3038               	 ;  105 "c:/winavr-20100110/lib/gcc/../../avr/include/util/delay_basic.h" 1
 3039 0212 3197      		1: sbiw r30,1
 3040 0214 01F4      		brne 1b
 3041               	 ;  0 "" 2
 3042               	/* #NOAPP */
 3043               	.LBE120:
 3044               	.LBE119:
 3045               	.LSM302:
 3046 0216 0197      		sbiw r24,1
 3047               	.LSM303:
 3048 0218 01F4      		brne .L138
 3049               	.LBE118:
 3050               	.LBE117:
 3051               	.LSM304:
 3052 021a 8091 0000 		lds r24,Lives
 3053 021e 9091 0000 		lds r25,(Lives)+1
 3054               	.LVL164:
 3055 0222 0197      		sbiw r24,1
 3056 0224 9093 0000 		sts (Lives)+1,r25
 3057 0228 8093 0000 		sts Lives,r24
 3058               	.LSM305:
 3059 022c 0E94 0000 		call setupHero
 3060               	.LVL165:
 3061               	.LSM306:
 3062 0230 E1E0      		ldi r30,lo8(1)
 3063 0232 F0E0      		ldi r31,hi8(1)
 3064 0234 F093 0000 		sts (notOver)+1,r31
 3065 0238 E093 0000 		sts notOver,r30
 3066               	.LSM307:
 3067 023c 0E94 0000 		call setupZombies
 3068               	.LSM308:
 3069 0240 1092 0000 		sts (notOver)+1,__zero_reg__
 3070 0244 1092 0000 		sts notOver,__zero_reg__
 3071 0248 00C0      		rjmp .L149
 3072               	.L136:
 3073               	.LSM309:
 3074 024a 88EB      		ldi r24,lo8(3000)
 3075 024c 9BE0      		ldi r25,hi8(3000)
 3076               	.LVL166:
 3077               	.L140:
 3078               	.LBB121:
 3079               	.LBB112:
 3080               	.LBB111:
 3081               	.LBB110:
 3082               	.LSM310:
 3083 024e F301      		movw r30,r6
 3084               	.LVL167:
 3085               	/* #APP */
 3086               	 ;  105 "c:/winavr-20100110/lib/gcc/../../avr/include/util/delay_basic.h" 1
 3087 0250 3197      		1: sbiw r30,1
 3088 0252 01F4      		brne 1b
 3089               	 ;  0 "" 2
 3090               	/* #NOAPP */
 3091               	.LBE110:
 3092               	.LBE111:
 3093               	.LSM311:
 3094 0254 0197      		sbiw r24,1
 3095               	.LSM312:
 3096 0256 01F4      		brne .L140
 3097               	.LBE112:
 3098               	.LBE121:
 3099               	.LSM313:
 3100 0258 0E94 0000 		call clear
 3101               	.LVL168:
 3102               	.LSM314:
 3103 025c 80E0      		ldi r24,lo8(.LC8)
 3104 025e 90E0      		ldi r25,hi8(.LC8)
 3105 0260 652D      		mov r22,r5
 3106 0262 4A81      		ldd r20,Y+2
 3107 0264 0E94 0000 		call draw_string
 3108               	.LSM315:
 3109 0268 0E94 0000 		call refresh
 3110 026c 88E9      		ldi r24,lo8(15000)
 3111 026e 9AE3      		ldi r25,hi8(15000)
 3112               	.LVL169:
 3113               	.L141:
 3114               	.LBB122:
 3115               	.LBB123:
 3116               	.LBB124:
 3117               	.LBB125:
 3118               	.LSM316:
 3119 0270 F301      		movw r30,r6
 3120               	.LVL170:
 3121               	/* #APP */
 3122               	 ;  105 "c:/winavr-20100110/lib/gcc/../../avr/include/util/delay_basic.h" 1
 3123 0272 3197      		1: sbiw r30,1
 3124 0274 01F4      		brne 1b
 3125               	 ;  0 "" 2
 3126               	/* #NOAPP */
 3127               	.LBE125:
 3128               	.LBE124:
 3129               	.LSM317:
 3130 0276 0197      		sbiw r24,1
 3131               	.LSM318:
 3132 0278 01F4      		brne .L141
 3133               	.LBE123:
 3134               	.LBE122:
 3135               	.LSM319:
 3136 027a 0E94 0000 		call setupGame
 3137               	.LVL171:
 3138               	.LSM320:
 3139 027e 0E94 0000 		call setupHero
 3140               	.LSM321:
 3141 0282 0E94 0000 		call setupZombies
 3142               	.LSM322:
 3143 0286 0E94 0000 		call setupPit
 3144               	.L149:
 3145               	.LSM323:
 3146 028a 0E94 0000 		call setupSword
 3147               	.LSM324:
 3148 028e 1092 0000 		sts (gotSword)+1,__zero_reg__
 3149 0292 1092 0000 		sts gotSword,__zero_reg__
 3150               	.LSM325:
 3151 0296 0E94 0000 		call setupGrenade
 3152               	.LSM326:
 3153 029a 1092 0000 		sts (gotGrenade)+1,__zero_reg__
 3154 029e 1092 0000 		sts gotGrenade,__zero_reg__
 3155               	.LSM327:
 3156 02a2 21E0      		ldi r18,lo8(1)
 3157 02a4 30E0      		ldi r19,hi8(1)
 3158 02a6 3093 0000 		sts (GAMEON)+1,r19
 3159 02aa 2093 0000 		sts GAMEON,r18
 3160               	.L135:
 3161               	.LBE105:
 3162               	.LSM328:
 3163 02ae 0894      		sec
 3164 02b0 811C      		adc r8,__zero_reg__
 3165 02b2 911C      		adc r9,__zero_reg__
 3166 02b4 82E0      		ldi r24,lo8(2)
 3167 02b6 90E0      		ldi r25,hi8(2)
 3168 02b8 E80E      		add r14,r24
 3169 02ba F91E      		adc r15,r25
 3170               	.L133:
 3171 02bc 8091 0000 		lds r24,numZombies
 3172 02c0 9091 0000 		lds r25,(numZombies)+1
 3173 02c4 0091 0000 		lds r16,width
 3174 02c8 8816      		cp r8,r24
 3175 02ca 9906      		cpc r9,r25
 3176 02cc 04F4      		brge .+2
 3177 02ce 00C0      		rjmp .L142
 3178               	.LBE104:
 3179               	.LSM329:
 3180 02d0 642D      		mov r22,r4
 3181 02d2 70E0      		ldi r23,lo8(0)
 3182 02d4 202F      		mov r18,r16
 3183 02d6 30E0      		ldi r19,lo8(0)
 3184 02d8 C601      		movw r24,r12
 3185 02da 821B      		sub r24,r18
 3186 02dc 930B      		sbc r25,r19
 3187 02de 8617      		cp r24,r22
 3188 02e0 9707      		cpc r25,r23
 3189 02e2 04F4      		brge .L144
 3190 02e4 2C0D      		add r18,r12
 3191 02e6 3D1D      		adc r19,r13
 3192 02e8 6217      		cp r22,r18
 3193 02ea 7307      		cpc r23,r19
 3194 02ec 04F4      		brge .L144
 3195 02ee 9981      		ldd r25,Y+1
 3196 02f0 692F      		mov r22,r25
 3197 02f2 70E0      		ldi r23,lo8(0)
 3198 02f4 8091 0000 		lds r24,height
 3199 02f8 282F      		mov r18,r24
 3200 02fa 30E0      		ldi r19,lo8(0)
 3201 02fc C501      		movw r24,r10
 3202 02fe 821B      		sub r24,r18
 3203 0300 930B      		sbc r25,r19
 3204 0302 8617      		cp r24,r22
 3205 0304 9707      		cpc r25,r23
 3206 0306 04F4      		brge .L144
 3207 0308 2A0D      		add r18,r10
 3208 030a 3B1D      		adc r19,r11
 3209 030c 6217      		cp r22,r18
 3210 030e 7307      		cpc r23,r19
 3211 0310 04F4      		brge .L144
 3212               	.LSM330:
 3213 0312 81E0      		ldi r24,lo8(1)
 3214 0314 90E0      		ldi r25,hi8(1)
 3215 0316 9093 0000 		sts (gotSword)+1,r25
 3216 031a 8093 0000 		sts gotSword,r24
 3217               	.L144:
 3218               	/* epilogue start */
 3219               	.LSM331:
 3220 031e 2896      		adiw r28,8
 3221 0320 0FB6      		in __tmp_reg__,__SREG__
 3222 0322 F894      		cli
 3223 0324 DEBF      		out __SP_H__,r29
 3224 0326 0FBE      		out __SREG__,__tmp_reg__
 3225 0328 CDBF      		out __SP_L__,r28
 3226 032a CF91      		pop r28
 3227 032c DF91      		pop r29
 3228 032e 1F91      		pop r17
 3229               	.LVL172:
 3230 0330 0F91      		pop r16
 3231 0332 FF90      		pop r15
 3232 0334 EF90      		pop r14
 3233 0336 DF90      		pop r13
 3234 0338 CF90      		pop r12
 3235               	.LVL173:
 3236 033a BF90      		pop r11
 3237 033c AF90      		pop r10
 3238               	.LVL174:
 3239 033e 9F90      		pop r9
 3240 0340 8F90      		pop r8
 3241               	.LVL175:
 3242 0342 7F90      		pop r7
 3243 0344 6F90      		pop r6
 3244 0346 5F90      		pop r5
 3245 0348 4F90      		pop r4
 3246               	.LVL176:
 3247 034a 3F90      		pop r3
 3248 034c 2F90      		pop r2
 3249 034e 0895      		ret
 3250               	.LFE22:
 3252               		.section	.text.main,"ax",@progbits
 3253               	.global	main
 3255               	main:
 3256               	.LFB7:
 3257               	.LSM332:
 3258 0000 2F92      		push r2
 3259 0002 3F92      		push r3
 3260 0004 4F92      		push r4
 3261 0006 5F92      		push r5
 3262 0008 6F92      		push r6
 3263 000a 7F92      		push r7
 3264 000c 8F92      		push r8
 3265 000e 9F92      		push r9
 3266 0010 AF92      		push r10
 3267 0012 BF92      		push r11
 3268 0014 CF92      		push r12
 3269 0016 DF92      		push r13
 3270 0018 EF92      		push r14
 3271 001a FF92      		push r15
 3272 001c 0F93      		push r16
 3273 001e 1F93      		push r17
 3274 0020 DF93      		push r29
 3275 0022 CF93      		push r28
 3276 0024 CDB7      		in r28,__SP_L__
 3277 0026 DEB7      		in r29,__SP_H__
 3278 0028 C557      		subi r28,lo8(-(-117))
 3279 002a D040      		sbci r29,hi8(-(-117))
 3280 002c 0FB6      		in __tmp_reg__,__SREG__
 3281 002e F894      		cli
 3282 0030 DEBF      		out __SP_H__,r29
 3283 0032 0FBE      		out __SREG__,__tmp_reg__
 3284 0034 CDBF      		out __SP_L__,r28
 3285               	/* prologue: function */
 3286               	/* frame size = 117 */
 3287               	.LSM333:
 3288 0036 2DB7      		in r18,__SP_L__
 3289 0038 3EB7      		in r19,__SP_H__
 3290 003a E596      		adiw r28,115-62
 3291 003c 3FAF      		std Y+63,r19
 3292 003e 2EAF      		std Y+62,r18
 3293 0040 E597      		sbiw r28,115-62
 3294               	.LSM334:
 3295 0042 0E94 0000 		call setupGame
 3296               	.LSM335:
 3297 0046 0E94 0000 		call clear
 3298               	.LSM336:
 3299 004a 0E94 0000 		call refresh
 3300               	.LSM337:
 3301 004e DE01      		movw r26,r28
 3302 0050 1196      		adiw r26,1
 3303 0052 E0E0      		ldi r30,lo8(C.0.1791)
 3304 0054 F0E0      		ldi r31,hi8(C.0.1791)
 3305 0056 83E0      		ldi r24,lo8(3)
 3306               	.L151:
 3307 0058 0190      		ld r0,Z+
 3308 005a 0D92      		st X+,r0
 3309 005c 8150      		subi r24,lo8(-(-1))
 3310 005e 01F4      		brne .L151
 3311               	.LSM338:
 3312 0060 DE01      		movw r26,r28
 3313 0062 1496      		adiw r26,4
 3314 0064 E0E0      		ldi r30,lo8(C.1.1792)
 3315 0066 F0E0      		ldi r31,hi8(C.1.1792)
 3316 0068 83E0      		ldi r24,lo8(3)
 3317               	.L152:
 3318 006a 0190      		ld r0,Z+
 3319 006c 0D92      		st X+,r0
 3320 006e 8150      		subi r24,lo8(-(-1))
 3321 0070 01F4      		brne .L152
 3322               	.LSM339:
 3323 0072 DE01      		movw r26,r28
 3324 0074 1796      		adiw r26,7
 3325 0076 E0E0      		ldi r30,lo8(C.2.1793)
 3326 0078 F0E0      		ldi r31,hi8(C.2.1793)
 3327 007a 83E0      		ldi r24,lo8(3)
 3328               	.L153:
 3329 007c 0190      		ld r0,Z+
 3330 007e 0D92      		st X+,r0
 3331 0080 8150      		subi r24,lo8(-(-1))
 3332 0082 01F4      		brne .L153
 3333               	.LSM340:
 3334 0084 2091 0000 		lds r18,width
 3335 0088 8091 0000 		lds r24,screen_x
 3336 008c 9091 0000 		lds r25,(screen_x)+1
 3337 0090 821B      		sub r24,r18
 3338 0092 9109      		sbc r25,__zero_reg__
 3339 0094 9093 0000 		sts (screen_x)+1,r25
 3340 0098 8093 0000 		sts screen_x,r24
 3341               	.LSM341:
 3342 009c 4091 0000 		lds r20,height
 3343 00a0 2091 0000 		lds r18,screen_y
 3344 00a4 3091 0000 		lds r19,(screen_y)+1
 3345 00a8 241B      		sub r18,r20
 3346 00aa 3109      		sbc r19,__zero_reg__
 3347 00ac 3093 0000 		sts (screen_y)+1,r19
 3348 00b0 2093 0000 		sts screen_y,r18
 3349               	.LSM342:
 3350 00b4 62E0      		ldi r22,lo8(2)
 3351 00b6 70E0      		ldi r23,hi8(2)
 3352 00b8 0E94 0000 		call __divmodhi4
 3353 00bc E696      		adiw r28,117-63
 3354 00be 6FAF      		std Y+63,r22
 3355 00c0 E697      		sbiw r28,117-63
 3356               	.LSM343:
 3357 00c2 C901      		movw r24,r18
 3358 00c4 62E0      		ldi r22,lo8(2)
 3359 00c6 70E0      		ldi r23,hi8(2)
 3360 00c8 0E94 0000 		call __divmodhi4
 3361 00cc 4B01      		movw r8,r22
 3362               	.LVL177:
 3363 00ce 45E0      		ldi r20,lo8(5)
 3364 00d0 50E0      		ldi r21,hi8(5)
 3365 00d2 840E      		add r8,r20
 3366 00d4 951E      		adc r9,r21
 3367               	.LSM344:
 3368 00d6 2091 0000 		lds r18,numZombies
 3369 00da 3091 0000 		lds r19,(numZombies)+1
 3370 00de 85E1      		ldi r24,lo8(21)
 3371 00e0 90E0      		ldi r25,hi8(21)
 3372 00e2 DC01      		movw r26,r24
 3373 00e4 2A9F      		mul r18,r26
 3374 00e6 C001      		movw r24,r0
 3375 00e8 2B9F      		mul r18,r27
 3376 00ea 900D      		add r25,r0
 3377 00ec 3A9F      		mul r19,r26
 3378 00ee 900D      		add r25,r0
 3379 00f0 1124      		clr r1
 3380 00f2 EDB7      		in r30,__SP_L__
 3381 00f4 FEB7      		in r31,__SP_H__
 3382 00f6 E81B      		sub r30,r24
 3383 00f8 F90B      		sbc r31,r25
 3384 00fa 0FB6      		in __tmp_reg__,__SREG__
 3385 00fc F894      		cli
 3386 00fe FEBF      		out __SP_H__,r31
 3387 0100 0FBE      		out __SREG__,__tmp_reg__
 3388 0102 EDBF      		out __SP_L__,r30
 3389 0104 6DB6      		in r6,__SP_L__
 3390 0106 7EB6      		in r7,__SP_H__
 3391 0108 0894      		sec
 3392 010a 611C      		adc r6,__zero_reg__
 3393 010c 711C      		adc r7,__zero_reg__
 3394 010e E696      		adiw r28,117-63
 3395 0110 1FAD      		ldd r17,Y+63
 3396 0112 E697      		sbiw r28,117-63
 3397 0114 E0E0      		ldi r30,lo8(zombie)
 3398 0116 AE2E      		mov r10,r30
 3399 0118 E0E0      		ldi r30,hi8(zombie)
 3400 011a BE2E      		mov r11,r30
 3401 011c CC24      		clr r12
 3402 011e DD24      		clr r13
 3403               	.LVL178:
 3404               	.LBB126:
 3405               	.LSM345:
 3406 0120 75E1      		ldi r23,lo8(21)
 3407 0122 272E      		mov r2,r23
 3408 0124 312C      		mov r3,__zero_reg__
 3409               	.LSM346:
 3410 0126 64E0      		ldi r22,lo8(4)
 3411 0128 462E      		mov r4,r22
 3412 012a 512C      		mov r5,__zero_reg__
 3413 012c 4C0E      		add r4,r28
 3414 012e 5D1E      		adc r5,r29
 3415 0130 00C0      		rjmp .L154
 3416               	.L155:
 3417               	.LSM347:
 3418 0132 C29C      		mul r12,r2
 3419 0134 C001      		movw r24,r0
 3420 0136 C39C      		mul r12,r3
 3421 0138 900D      		add r25,r0
 3422 013a D29C      		mul r13,r2
 3423 013c 900D      		add r25,r0
 3424 013e 1124      		clr r1
 3425 0140 860D      		add r24,r6
 3426 0142 971D      		adc r25,r7
 3427 0144 D501      		movw r26,r10
 3428 0146 8D93      		st X+,r24
 3429 0148 9D93      		st X+,r25
 3430 014a 5D01      		movw r10,r26
 3431               	.LSM348:
 3432 014c 612F      		mov r22,r17
 3433 014e 482D      		mov r20,r8
 3434 0150 2091 0000 		lds r18,width
 3435 0154 0091 0000 		lds r16,height
 3436 0158 7201      		movw r14,r4
 3437 015a 0E94 0000 		call init_sprite
 3438               	.LSM349:
 3439 015e 0894      		sec
 3440 0160 C11C      		adc r12,__zero_reg__
 3441 0162 D11C      		adc r13,__zero_reg__
 3442 0164 1D5F      		subi r17,lo8(-(3))
 3443               	.L154:
 3444 0166 8091 0000 		lds r24,numZombies
 3445 016a 9091 0000 		lds r25,(numZombies)+1
 3446 016e C816      		cp r12,r24
 3447 0170 D906      		cpc r13,r25
 3448 0172 04F0      		brlt .L155
 3449               	.LBE126:
 3450               	.LSM350:
 3451 0174 CE01      		movw r24,r28
 3452 0176 0A96      		adiw r24,10
 3453 0178 9093 0000 		sts (sword)+1,r25
 3454 017c 8093 0000 		sts sword,r24
 3455               	.LSM351:
 3456 0180 9E01      		movw r18,r28
 3457 0182 215E      		subi r18,lo8(-(31))
 3458 0184 3F4F      		sbci r19,hi8(-(31))
 3459 0186 3093 0000 		sts (swordStatus)+1,r19
 3460 018a 2093 0000 		sts swordStatus,r18
 3461               	.LSM352:
 3462 018e 66EF      		ldi r22,lo8(-10)
 3463 0190 46EF      		ldi r20,lo8(-10)
 3464 0192 2091 0000 		lds r18,width
 3465 0196 0091 0000 		lds r16,height
 3466 019a 50E0      		ldi r21,lo8(bitSwordLeft)
 3467 019c E52E      		mov r14,r21
 3468 019e 50E0      		ldi r21,hi8(bitSwordLeft)
 3469 01a0 F52E      		mov r15,r21
 3470 01a2 0E94 0000 		call init_sprite
 3471               	.LSM353:
 3472 01a6 8091 0000 		lds r24,swordStatus
 3473 01aa 9091 0000 		lds r25,(swordStatus)+1
 3474 01ae 66EF      		ldi r22,lo8(-10)
 3475 01b0 46EF      		ldi r20,lo8(-10)
 3476 01b2 2091 0000 		lds r18,width
 3477 01b6 0091 0000 		lds r16,height
 3478 01ba 30E0      		ldi r19,lo8(bitSwordUp)
 3479 01bc E32E      		mov r14,r19
 3480 01be 30E0      		ldi r19,hi8(bitSwordUp)
 3481 01c0 F32E      		mov r15,r19
 3482 01c2 0E94 0000 		call init_sprite
 3483               	.LSM354:
 3484 01c6 CE01      		movw r24,r28
 3485 01c8 C496      		adiw r24,52
 3486 01ca 9093 0000 		sts (grenade)+1,r25
 3487 01ce 8093 0000 		sts grenade,r24
 3488               	.LSM355:
 3489 01d2 9E01      		movw r18,r28
 3490 01d4 275B      		subi r18,lo8(-(73))
 3491 01d6 3F4F      		sbci r19,hi8(-(73))
 3492 01d8 3093 0000 		sts (grenadeStatus)+1,r19
 3493 01dc 2093 0000 		sts grenadeStatus,r18
 3494               	.LSM356:
 3495 01e0 27E0      		ldi r18,lo8(7)
 3496 01e2 C22E      		mov r12,r18
 3497 01e4 D12C      		mov r13,__zero_reg__
 3498               	.LVL179:
 3499 01e6 CC0E      		add r12,r28
 3500 01e8 DD1E      		adc r13,r29
 3501 01ea 66EF      		ldi r22,lo8(-10)
 3502 01ec 46EF      		ldi r20,lo8(-10)
 3503 01ee 2091 0000 		lds r18,width
 3504 01f2 0091 0000 		lds r16,height
 3505 01f6 7601      		movw r14,r12
 3506 01f8 0E94 0000 		call init_sprite
 3507               	.LSM357:
 3508 01fc 8091 0000 		lds r24,grenadeStatus
 3509 0200 9091 0000 		lds r25,(grenadeStatus)+1
 3510 0204 66EF      		ldi r22,lo8(-10)
 3511 0206 46EF      		ldi r20,lo8(-10)
 3512 0208 2091 0000 		lds r18,width
 3513 020c 0091 0000 		lds r16,height
 3514 0210 0E94 0000 		call init_sprite
 3515               	.LSM358:
 3516 0214 0E94 0000 		call setupGrenade
 3517               	.LSM359:
 3518 0218 0E94 0000 		call setupSword
 3519               	.LSM360:
 3520 021c 0E94 0000 		call setupZombies
 3521               	.LSM361:
 3522 0220 0E94 0000 		call setupPit
 3523               	.LSM362:
 3524 0224 CE01      		movw r24,r28
 3525 0226 825A      		subi r24,lo8(-(94))
 3526 0228 9F4F      		sbci r25,hi8(-(94))
 3527 022a 9093 0000 		sts (my_pointer)+1,r25
 3528 022e 8093 0000 		sts my_pointer,r24
 3529               	.LSM363:
 3530 0232 E696      		adiw r28,117-63
 3531 0234 6FAD      		ldd r22,Y+63
 3532 0236 E697      		sbiw r28,117-63
 3533 0238 482D      		mov r20,r8
 3534 023a 2091 0000 		lds r18,width
 3535 023e 0091 0000 		lds r16,height
 3536 0242 7E01      		movw r14,r28
 3537 0244 0894      		sec
 3538 0246 E11C      		adc r14,__zero_reg__
 3539 0248 F11C      		adc r15,__zero_reg__
 3540 024a 0E94 0000 		call init_sprite
 3541               	.LSM364:
 3542 024e 8091 0000 		lds r24,my_pointer
 3543 0252 9091 0000 		lds r25,(my_pointer)+1
 3544 0256 0E94 0000 		call draw_sprite
 3545 025a 00E0      		ldi r16,lo8(zombie)
 3546 025c E02E      		mov r14,r16
 3547 025e 00E0      		ldi r16,hi8(zombie)
 3548 0260 F02E      		mov r15,r16
 3549 0262 00E0      		ldi r16,lo8(0)
 3550 0264 10E0      		ldi r17,hi8(0)
 3551               	.LVL180:
 3552 0266 00C0      		rjmp .L156
 3553               	.L157:
 3554               	.LBB127:
 3555               	.LSM365:
 3556 0268 F701      		movw r30,r14
 3557 026a 8191      		ld r24,Z+
 3558 026c 9191      		ld r25,Z+
 3559 026e 7F01      		movw r14,r30
 3560 0270 0E94 0000 		call draw_sprite
 3561               	.LSM366:
 3562 0274 0F5F      		subi r16,lo8(-(1))
 3563 0276 1F4F      		sbci r17,hi8(-(1))
 3564               	.L156:
 3565 0278 8091 0000 		lds r24,numZombies
 3566 027c 9091 0000 		lds r25,(numZombies)+1
 3567 0280 0817      		cp r16,r24
 3568 0282 1907      		cpc r17,r25
 3569 0284 04F0      		brlt .L157
 3570               	.LBE127:
 3571               	.LSM367:
 3572 0286 0E94 0000 		call refresh
 3573 028a 88EE      		ldi r24,lo8(1000)
 3574 028c 93E0      		ldi r25,hi8(1000)
 3575               	.LVL181:
 3576               	.LBB128:
 3577               	.LBB129:
 3578               	.LBB130:
 3579               	.LBB131:
 3580               	.LSM368:
 3581 028e 20E9      		ldi r18,lo8(400)
 3582 0290 31E0      		ldi r19,hi8(400)
 3583               	.L158:
 3584 0292 F901      		movw r30,r18
 3585               	.LVL182:
 3586               	/* #APP */
 3587               	 ;  105 "c:/winavr-20100110/lib/gcc/../../avr/include/util/delay_basic.h" 1
 3588 0294 3197      		1: sbiw r30,1
 3589 0296 01F4      		brne 1b
 3590               	 ;  0 "" 2
 3591               	/* #NOAPP */
 3592               	.LBE131:
 3593               	.LBE130:
 3594               	.LSM369:
 3595 0298 0197      		sbiw r24,1
 3596               	.LSM370:
 3597 029a 01F4      		brne .L158
 3598               	.LBE129:
 3599               	.LBE128:
 3600               	.LSM371:
 3601 029c 81E0      		ldi r24,lo8(1)
 3602 029e 90E0      		ldi r25,hi8(1)
 3603               	.LVL183:
 3604 02a0 9093 0000 		sts (GAMEON)+1,r25
 3605 02a4 8093 0000 		sts GAMEON,r24
 3606 02a8 11E0      		ldi r17,lo8(1)
 3607 02aa C12E      		mov r12,r17
 3608 02ac D12C      		mov r13,__zero_reg__
 3609               	.LVL184:
 3610 02ae B1E0      		ldi r27,lo8(1)
 3611 02b0 AB2E      		mov r10,r27
 3612 02b2 B12C      		mov r11,__zero_reg__
 3613               	.LVL185:
 3614               	.LSM372:
 3615 02b4 0F2E      		mov __tmp_reg__,r31
 3616 02b6 F0E0      		ldi r31,lo8(0xc1200000)
 3617 02b8 6F2E      		mov r6,r31
 3618 02ba F0E0      		ldi r31,hi8(0xc1200000)
 3619 02bc 7F2E      		mov r7,r31
 3620 02be F0E2      		ldi r31,hlo8(0xc1200000)
 3621 02c0 8F2E      		mov r8,r31
 3622 02c2 F1EC      		ldi r31,hhi8(0xc1200000)
 3623 02c4 9F2E      		mov r9,r31
 3624 02c6 F02D      		mov r31,__tmp_reg__
 3625               	.LSM373:
 3626 02c8 0F2E      		mov __tmp_reg__,r31
 3627 02ca F0E0      		ldi r31,lo8(0x0)
 3628 02cc 2F2E      		mov r2,r31
 3629 02ce F0E0      		ldi r31,hi8(0x0)
 3630 02d0 3F2E      		mov r3,r31
 3631 02d2 F0E0      		ldi r31,hlo8(0x0)
 3632 02d4 4F2E      		mov r4,r31
 3633 02d6 F0E0      		ldi r31,hhi8(0x0)
 3634 02d8 5F2E      		mov r5,r31
 3635 02da F02D      		mov r31,__tmp_reg__
 3636 02dc 00C0      		rjmp .L177
 3637               	.LVL186:
 3638               	.L169:
 3639               	.LSM374:
 3640 02de 0E94 0000 		call clear
 3641               	.LVL187:
 3642               	.LSM375:
 3643 02e2 8091 0000 		lds r24,RIGHT
 3644 02e6 9091 0000 		lds r25,(RIGHT)+1
 3645 02ea 892B      		or r24,r25
 3646 02ec 01F4      		brne .L160
 3647 02ee A1E0      		ldi r26,lo8(1)
 3648 02f0 CA2E      		mov r12,r26
 3649 02f2 D12C      		mov r13,__zero_reg__
 3650               	.L160:
 3651               	.LSM376:
 3652 02f4 8091 0000 		lds r24,LEFT
 3653 02f8 9091 0000 		lds r25,(LEFT)+1
 3654 02fc 892B      		or r24,r25
 3655 02fe 01F4      		brne .L161
 3656 0300 F1E0      		ldi r31,lo8(1)
 3657 0302 AF2E      		mov r10,r31
 3658 0304 B12C      		mov r11,__zero_reg__
 3659               	.L161:
 3660               	.LSM377:
 3661 0306 8091 0000 		lds r24,RIGHT
 3662 030a 9091 0000 		lds r25,(RIGHT)+1
 3663 030e 892B      		or r24,r25
 3664 0310 01F0      		breq .L162
 3665 0312 C114      		cp r12,__zero_reg__
 3666 0314 D104      		cpc r13,__zero_reg__
 3667 0316 01F0      		breq .L162
 3668               	.LSM378:
 3669 0318 8091 0000 		lds r24,Direction
 3670 031c 9091 0000 		lds r25,(Direction)+1
 3671 0320 0197      		sbiw r24,1
 3672 0322 9093 0000 		sts (Direction)+1,r25
 3673 0326 8093 0000 		sts Direction,r24
 3674               	.LSM379:
 3675 032a 8091 0000 		lds r24,Direction
 3676 032e 9091 0000 		lds r25,(Direction)+1
 3677 0332 97FF      		sbrs r25,7
 3678 0334 00C0      		rjmp .L178
 3679               	.L163:
 3680               	.LSM380:
 3681 0336 23E0      		ldi r18,lo8(3)
 3682 0338 30E0      		ldi r19,hi8(3)
 3683 033a 3093 0000 		sts (Direction)+1,r19
 3684 033e 2093 0000 		sts Direction,r18
 3685               	.L178:
 3686 0342 CC24      		clr r12
 3687 0344 DD24      		clr r13
 3688               	.L162:
 3689               	.LSM381:
 3690 0346 8091 0000 		lds r24,LEFT
 3691 034a 9091 0000 		lds r25,(LEFT)+1
 3692 034e 8A21      		and r24,r10
 3693 0350 9B21      		and r25,r11
 3694 0352 892B      		or r24,r25
 3695 0354 01F0      		breq .L164
 3696               	.LSM382:
 3697 0356 8091 0000 		lds r24,Direction
 3698 035a 9091 0000 		lds r25,(Direction)+1
 3699 035e 0196      		adiw r24,1
 3700 0360 64E0      		ldi r22,lo8(4)
 3701 0362 70E0      		ldi r23,hi8(4)
 3702 0364 0E94 0000 		call __divmodhi4
 3703 0368 9093 0000 		sts (Direction)+1,r25
 3704 036c 8093 0000 		sts Direction,r24
 3705 0370 AA24      		clr r10
 3706 0372 BB24      		clr r11
 3707               	.L164:
 3708               	.LSM383:
 3709 0374 8091 0000 		lds r24,my_pointer
 3710 0378 9091 0000 		lds r25,(my_pointer)+1
 3711 037c 0E94 0000 		call draw_sprite
 3712               	.LSM384:
 3713 0380 8091 0000 		lds r24,sword
 3714 0384 9091 0000 		lds r25,(sword)+1
 3715 0388 0E94 0000 		call draw_sprite
 3716               	.LSM385:
 3717 038c 8091 0000 		lds r24,grenade
 3718 0390 9091 0000 		lds r25,(grenade)+1
 3719 0394 0E94 0000 		call draw_sprite
 3720               	.LSM386:
 3721 0398 8091 0000 		lds r24,gotSword
 3722 039c 9091 0000 		lds r25,(gotSword)+1
 3723 03a0 E091 0000 		lds r30,swordStatus
 3724 03a4 F091 0000 		lds r31,(swordStatus)+1
 3725 03a8 892B      		or r24,r25
 3726 03aa 01F0      		breq .L165
 3727               	.LSM387:
 3728 03ac 80E0      		ldi r24,lo8(0x42340000)
 3729 03ae 90E0      		ldi r25,hi8(0x42340000)
 3730 03b0 A4E3      		ldi r26,hlo8(0x42340000)
 3731 03b2 B2E4      		ldi r27,hhi8(0x42340000)
 3732 03b4 8083      		st Z,r24
 3733 03b6 9183      		std Z+1,r25
 3734 03b8 A283      		std Z+2,r26
 3735 03ba B383      		std Z+3,r27
 3736               	.LSM388:
 3737 03bc 2482      		std Z+4,r2
 3738 03be 3582      		std Z+5,r3
 3739 03c0 4682      		std Z+6,r4
 3740 03c2 5782      		std Z+7,r5
 3741 03c4 00C0      		rjmp .L179
 3742               	.L165:
 3743               	.LSM389:
 3744 03c6 6082      		st Z,r6
 3745 03c8 7182      		std Z+1,r7
 3746 03ca 8282      		std Z+2,r8
 3747 03cc 9382      		std Z+3,r9
 3748               	.LSM390:
 3749 03ce 6482      		std Z+4,r6
 3750 03d0 7582      		std Z+5,r7
 3751 03d2 8682      		std Z+6,r8
 3752 03d4 9782      		std Z+7,r9
 3753               	.L179:
 3754               	.LSM391:
 3755 03d6 CF01      		movw r24,r30
 3756 03d8 0E94 0000 		call draw_sprite
 3757 03dc E0E0      		ldi r30,lo8(zombie)
 3758 03de EE2E      		mov r14,r30
 3759 03e0 E0E0      		ldi r30,hi8(zombie)
 3760 03e2 FE2E      		mov r15,r30
 3761 03e4 00E0      		ldi r16,lo8(0)
 3762 03e6 10E0      		ldi r17,hi8(0)
 3763               	.LVL188:
 3764 03e8 00C0      		rjmp .L167
 3765               	.L168:
 3766               	.LBB132:
 3767               	.LSM392:
 3768 03ea D701      		movw r26,r14
 3769 03ec 8D91      		ld r24,X+
 3770 03ee 9D91      		ld r25,X+
 3771 03f0 7D01      		movw r14,r26
 3772 03f2 0E94 0000 		call draw_sprite
 3773               	.LSM393:
 3774 03f6 0F5F      		subi r16,lo8(-(1))
 3775 03f8 1F4F      		sbci r17,hi8(-(1))
 3776               	.L167:
 3777 03fa 8091 0000 		lds r24,numZombies
 3778 03fe 9091 0000 		lds r25,(numZombies)+1
 3779 0402 0817      		cp r16,r24
 3780 0404 1907      		cpc r17,r25
 3781 0406 04F0      		brlt .L168
 3782               	.LBE132:
 3783               	.LSM394:
 3784 0408 0E94 0000 		call drawPit
 3785               	.LSM395:
 3786 040c 0E94 0000 		call drawScreen
 3787               	.LSM396:
 3788 0410 0E94 0000 		call refresh
 3789               	.LSM397:
 3790 0414 0E94 0000 		call collision
 3791               	.LSM398:
 3792 0418 8091 0000 		lds r24,activeZombies
 3793 041c 9091 0000 		lds r25,(activeZombies)+1
 3794 0420 1816      		cp __zero_reg__,r24
 3795 0422 1906      		cpc __zero_reg__,r25
 3796 0424 04F0      		brlt .L177
 3797               	.LSM399:
 3798 0426 0E94 0000 		call winScreen
 3799               	.LVL189:
 3800               	.L177:
 3801               	.LSM400:
 3802 042a 8091 0000 		lds r24,GAMEON
 3803 042e 9091 0000 		lds r25,(GAMEON)+1
 3804 0432 892B      		or r24,r25
 3805 0434 01F0      		breq .+2
 3806 0436 00C0      		rjmp .L169
 3807               	.LSM401:
 3808 0438 80E0      		ldi r24,lo8(0)
 3809 043a 90E0      		ldi r25,hi8(0)
 3810 043c E596      		adiw r28,115-62
 3811 043e EEAD      		ldd r30,Y+62
 3812 0440 FFAD      		ldd r31,Y+63
 3813 0442 E597      		sbiw r28,115-62
 3814               	.LVL190:
 3815 0444 0FB6      		in __tmp_reg__,__SREG__
 3816 0446 F894      		cli
 3817 0448 FEBF      		out __SP_H__,r31
 3818 044a 0FBE      		out __SREG__,__tmp_reg__
 3819 044c EDBF      		out __SP_L__,r30
 3820               	/* epilogue start */
 3821 044e CB58      		subi r28,lo8(-(117))
 3822 0450 DF4F      		sbci r29,hi8(-(117))
 3823 0452 0FB6      		in __tmp_reg__,__SREG__
 3824 0454 F894      		cli
 3825 0456 DEBF      		out __SP_H__,r29
 3826 0458 0FBE      		out __SREG__,__tmp_reg__
 3827 045a CDBF      		out __SP_L__,r28
 3828 045c CF91      		pop r28
 3829 045e DF91      		pop r29
 3830 0460 1F91      		pop r17
 3831 0462 0F91      		pop r16
 3832               	.LVL191:
 3833 0464 FF90      		pop r15
 3834 0466 EF90      		pop r14
 3835 0468 DF90      		pop r13
 3836 046a CF90      		pop r12
 3837               	.LVL192:
 3838 046c BF90      		pop r11
 3839 046e AF90      		pop r10
 3840               	.LVL193:
 3841 0470 9F90      		pop r9
 3842 0472 8F90      		pop r8
 3843               	.LVL194:
 3844 0474 7F90      		pop r7
 3845 0476 6F90      		pop r6
 3846 0478 5F90      		pop r5
 3847 047a 4F90      		pop r4
 3848 047c 3F90      		pop r3
 3849 047e 2F90      		pop r2
 3850 0480 0895      		ret
 3851               	.LFE7:
 3853               	.global	LEFT
 3854               	.global	LEFT
 3855               		.section .bss
 3858               	LEFT:
 3859 0000 0000      		.skip 2,0
 3860               	.global	RIGHT
 3861               	.global	RIGHT
 3864               	RIGHT:
 3865 0002 0000      		.skip 2,0
 3866               	.global	screen_x
 3867               		.data
 3870               	screen_x:
 3871 0068 5300      		.word	83
 3872               	.global	screen_x_Full
 3875               	screen_x_Full:
 3876 006a 5300      		.word	83
 3877               	.global	screen_y
 3880               	screen_y:
 3881 006c 2F00      		.word	47
 3882               	.global	screen_y_Full
 3885               	screen_y_Full:
 3886 006e 2F00      		.word	47
 3887               	.global	charWidth
 3890               	charWidth:
 3891 0070 0800      		.word	8
 3892               	.global	charHeight
 3895               	charHeight:
 3896 0072 0800      		.word	8
 3897               	.global	previousLEFT
 3898               	.global	previousLEFT
 3899               		.section .bss
 3902               	previousLEFT:
 3903 0004 0000      		.skip 2,0
 3904               	.global	previousRIGHT
 3905               	.global	previousRIGHT
 3908               	previousRIGHT:
 3909 0006 0000      		.skip 2,0
 3910               	.global	buttonPressed
 3911               	.global	buttonPressed
 3914               	buttonPressed:
 3915 0008 0000      		.skip 2,0
 3916               	.global	previousButton
 3917               	.global	previousButton
 3920               	previousButton:
 3921 000a 0000      		.skip 2,0
 3922               	.global	Direction
 3923               		.data
 3926               	Direction:
 3927 0074 0100      		.word	1
 3928               	.global	zDirection
 3931               	zDirection:
 3932 0076 0100      		.word	1
 3933 0078 0000 0000 		.skip 14,0
 3933      0000 0000 
 3933      0000 0000 
 3933      0000 
 3934               	.global	clockCounter
 3935               	.global	clockCounter
 3936               		.section .bss
 3939               	clockCounter:
 3940 000c 0000      		.skip 2,0
 3941               	.global	stepsCounter
 3942               	.global	stepsCounter
 3945               	stepsCounter:
 3946 000e 0000      		.skip 2,0
 3947               	.global	scoreCounter
 3948               	.global	scoreCounter
 3951               	scoreCounter:
 3952 0010 0000      		.skip 2,0
 3953               	.global	GAMEON
 3954               	.global	GAMEON
 3957               	GAMEON:
 3958 0012 0000      		.skip 2,0
 3959               	.global	activeZombies
 3960               		.data
 3963               	activeZombies:
 3964 0086 0800      		.word	8
 3965               	.global	numZombies
 3968               	numZombies:
 3969 0088 0800      		.word	8
 3970               	.global	notOver
 3971               	.global	notOver
 3972               		.section .bss
 3975               	notOver:
 3976 0014 0000      		.skip 2,0
 3977               	.global	width
 3978               		.data
 3981               	width:
 3982 008a 03        		.byte	3
 3983               	.global	height
 3986               	height:
 3987 008b 03        		.byte	3
 3988               	.global	Lives
 3991               	Lives:
 3992 008c 0300      		.word	3
 3993               	.global	Score
 3994               	.global	Score
 3995               		.section .bss
 3998               	Score:
 3999 0016 0000      		.skip 2,0
 4000               	.global	gotSword
 4001               	.global	gotSword
 4004               	gotSword:
 4005 0018 0000      		.skip 2,0
 4006               	.global	gotGrenade
 4007               	.global	gotGrenade
 4010               	gotGrenade:
 4011 001a 0000      		.skip 2,0
 4012               	.global	bitSwordLeft
 4013               		.data
 4016               	bitSwordLeft:
 4017 008e 20        		.byte	32
 4018 008f E0        		.byte	-32
 4019 0090 20        		.byte	32
 4020               	.global	bitSwordRight
 4023               	bitSwordRight:
 4024 0091 80        		.byte	-128
 4025 0092 E0        		.byte	-32
 4026 0093 80        		.byte	-128
 4027               	.global	bitSwordUp
 4030               	bitSwordUp:
 4031 0094 40        		.byte	64
 4032 0095 40        		.byte	64
 4033 0096 E0        		.byte	-32
 4034               	.global	bitSwordDown
 4037               	bitSwordDown:
 4038 0097 E0        		.byte	-32
 4039 0098 40        		.byte	64
 4040 0099 40        		.byte	64
 4043               	C.2.1793:
 4044 009a 40        		.byte	64
 4045 009b A0        		.byte	-96
 4046 009c 40        		.byte	64
 4049               	C.1.1792:
 4050 009d E0        		.byte	-32
 4051 009e 40        		.byte	64
 4052 009f E0        		.byte	-32
 4055               	C.0.1791:
 4056 00a0 A0        		.byte	-96
 4057 00a1 E0        		.byte	-32
 4058 00a2 A0        		.byte	-96
 4059               		.comm Touched,2,1
 4060               		.comm Over,2,1
 4061               		.comm pitLeft,2,1
 4062               		.comm pitRight,2,1
 4063               		.comm pitTop,2,1
 4064               		.comm pitBottom,2,1
 4065               		.comm my_pointer,2,1
 4066               		.comm zombie,16,1
 4067               		.comm sword,2,1
 4068               		.comm swordStatus,2,1
 4069               		.comm grenade,2,1
 4070               		.comm grenadeStatus,2,1
 4263               	.Letext0:
DEFINED SYMBOLS
                            *ABS*:00000000 solution.c
C:\cygwin\tmp/ccNtEZx9.s:2      *ABS*:0000003f __SREG__
C:\cygwin\tmp/ccNtEZx9.s:3      *ABS*:0000003e __SP_H__
C:\cygwin\tmp/ccNtEZx9.s:4      *ABS*:0000003d __SP_L__
C:\cygwin\tmp/ccNtEZx9.s:5      *ABS*:00000034 __CCP__
C:\cygwin\tmp/ccNtEZx9.s:6      *ABS*:00000000 __tmp_reg__
C:\cygwin\tmp/ccNtEZx9.s:7      *ABS*:00000001 __zero_reg__
C:\cygwin\tmp/ccNtEZx9.s:19     .text.buttonCheck:00000000 buttonCheck
C:\cygwin\tmp/ccNtEZx9.s:3864   .bss:00000002 RIGHT
C:\cygwin\tmp/ccNtEZx9.s:3858   .bss:00000000 LEFT
C:\cygwin\tmp/ccNtEZx9.s:117    .text.PinChangeInit:00000000 PinChangeInit
C:\cygwin\tmp/ccNtEZx9.s:158    .text.__vector_9:00000000 __vector_9
C:\cygwin\tmp/ccNtEZx9.s:207    .text.TimerInit:00000000 TimerInit
C:\cygwin\tmp/ccNtEZx9.s:248    .text.setupHero:00000000 setupHero
C:\cygwin\tmp/ccNtEZx9.s:3880   .data:0000006c screen_y
                            *COM*:00000002 my_pointer
C:\cygwin\tmp/ccNtEZx9.s:3870   .data:00000068 screen_x
C:\cygwin\tmp/ccNtEZx9.s:318    .text.isInPit:00000000 isInPit
                            *COM*:00000002 pitLeft
C:\cygwin\tmp/ccNtEZx9.s:3981   .data:0000008a width
                            *COM*:00000002 pitRight
                            *COM*:00000002 pitTop
C:\cygwin\tmp/ccNtEZx9.s:3986   .data:0000008b height
                            *COM*:00000002 pitBottom
C:\cygwin\tmp/ccNtEZx9.s:404    .text.heroForward:00000000 heroForward
C:\cygwin\tmp/ccNtEZx9.s:3926   .data:00000074 Direction
                            *COM*:00000002 sword
C:\cygwin\tmp/ccNtEZx9.s:4037   .data:00000097 bitSwordDown
C:\cygwin\tmp/ccNtEZx9.s:4004   .bss:00000018 gotSword
C:\cygwin\tmp/ccNtEZx9.s:4023   .data:00000091 bitSwordRight
C:\cygwin\tmp/ccNtEZx9.s:4030   .data:00000094 bitSwordUp
C:\cygwin\tmp/ccNtEZx9.s:4016   .data:0000008e bitSwordLeft
C:\cygwin\tmp/ccNtEZx9.s:1013   .text.drawPit:00000000 drawPit
C:\cygwin\tmp/ccNtEZx9.s:1055   .text.drawScreen:00000000 drawScreen
C:\cygwin\tmp/ccNtEZx9.s:3875   .data:0000006a screen_x_Full
C:\cygwin\tmp/ccNtEZx9.s:3885   .data:0000006e screen_y_Full
C:\cygwin\tmp/ccNtEZx9.s:3991   .data:0000008c Lives
C:\cygwin\tmp/ccNtEZx9.s:3998   .bss:00000016 Score
C:\cygwin\tmp/ccNtEZx9.s:1154   .text.CountDown:00000000 CountDown
C:\cygwin\tmp/ccNtEZx9.s:1235   .text.seedWithButtonPress:00000000 seedWithButtonPress
C:\cygwin\tmp/ccNtEZx9.s:1279   .text.randInRange:00000000 randInRange
C:\cygwin\tmp/ccNtEZx9.s:1319   .text.setupGrenade:00000000 setupGrenade
                            *COM*:00000002 grenade
C:\cygwin\tmp/ccNtEZx9.s:1400   .text.setupSword:00000000 setupSword
C:\cygwin\tmp/ccNtEZx9.s:1481   .text.setupPit:00000000 setupPit
C:\cygwin\tmp/ccNtEZx9.s:1552   .text.setupZombies:00000000 setupZombies
                            *COM*:00000010 zombie
C:\cygwin\tmp/ccNtEZx9.s:3968   .data:00000088 numZombies
C:\cygwin\tmp/ccNtEZx9.s:3931   .data:00000076 zDirection
C:\cygwin\tmp/ccNtEZx9.s:3975   .bss:00000014 notOver
C:\cygwin\tmp/ccNtEZx9.s:2007   .text.zombiesForward:00000000 zombiesForward
C:\cygwin\tmp/ccNtEZx9.s:2412   .text.__vector_23:00000000 __vector_23
C:\cygwin\tmp/ccNtEZx9.s:3939   .bss:0000000c clockCounter
C:\cygwin\tmp/ccNtEZx9.s:3957   .bss:00000012 GAMEON
C:\cygwin\tmp/ccNtEZx9.s:3945   .bss:0000000e stepsCounter
C:\cygwin\tmp/ccNtEZx9.s:3951   .bss:00000010 scoreCounter
C:\cygwin\tmp/ccNtEZx9.s:2527   .text.setupGame:00000000 setupGame
C:\cygwin\tmp/ccNtEZx9.s:3963   .data:00000086 activeZombies
C:\cygwin\tmp/ccNtEZx9.s:2610   .text.winScreen:00000000 winScreen
C:\cygwin\tmp/ccNtEZx9.s:4010   .bss:0000001a gotGrenade
C:\cygwin\tmp/ccNtEZx9.s:2736   .text.collision:00000000 collision
C:\cygwin\tmp/ccNtEZx9.s:3255   .text.main:00000000 main
C:\cygwin\tmp/ccNtEZx9.s:4055   .data:000000a0 C.0.1791
C:\cygwin\tmp/ccNtEZx9.s:4049   .data:0000009d C.1.1792
C:\cygwin\tmp/ccNtEZx9.s:4043   .data:0000009a C.2.1793
                            *COM*:00000002 swordStatus
                            *COM*:00000002 grenadeStatus
C:\cygwin\tmp/ccNtEZx9.s:3890   .data:00000070 charWidth
C:\cygwin\tmp/ccNtEZx9.s:3895   .data:00000072 charHeight
C:\cygwin\tmp/ccNtEZx9.s:3902   .bss:00000004 previousLEFT
C:\cygwin\tmp/ccNtEZx9.s:3908   .bss:00000006 previousRIGHT
C:\cygwin\tmp/ccNtEZx9.s:3914   .bss:00000008 buttonPressed
C:\cygwin\tmp/ccNtEZx9.s:3920   .bss:0000000a previousButton
                            *COM*:00000002 Touched
                            *COM*:00000002 Over

UNDEFINED SYMBOLS
__divmodhi4
__floatsisf
__fixsfsi
__addsf3
__gtsf2
__subsf3
__ltsf2
draw_line
draw_string
draw_character
clear
refresh
srand
rand
__floatunsisf
LCDInitialise
__fixunssfsi
init_sprite
draw_sprite
__do_copy_data
__do_clear_bss
